     1 00000000                                 ; Kalinote-ipl
     2 00000000                                 ; TAB=4
     3 00000000                                 ; 只能读入10个柱面
     4 00000000                                 
     5  = 0000000A                              CYLS	EQU		10				; 读取10个柱面
     6 00000000                                 
     7                                          		ORG		0x7c00			; 程序起始装载地址
     8 00007C00                                 
     9 00007C00                                 ; 以下是标准FAT32格式载体用代码
    10 00007C00                                 
    11 00007C00 EB 4E                           		JMP		entry
    12 00007C02 90                              		DB		0x90
    13 00007C03 4B 41 4C 49 4E 49 50 4C         		DB		"KALINIPL"		; 启动区名称(8字?)
    14 00007C0B 0200                            		DW		512				; 每个扇区大小为512
    15 00007C0D 01                              		DB		1				; 每个簇大小为一个扇区
    16 00007C0E 0001                            		DW		1				; FAT起始位置
    17 00007C10 02                              		DB		2				; FAT个数
    18 00007C11 00E0                            		DW		224				; 根目的大小
    19 00007C13 0B40                            		DW		2880			; 磁盘大小
    20 00007C15 F0                              		DB		0xf0			; 磁盘种类
    21 00007C16 0009                            		DW		9				; FAT长度
    22 00007C18 0012                            		DW		18				; 每个磁道的扇区数
    23 00007C1A 0002                            		DW		2				; 磁头数
    24 00007C1C 00000000                        		DD		0				; 不使用分区
    25 00007C20 00000B40                        		DD		2880			; 重写一遍磁盘大小
    26 00007C24 00 00 29                        		DB		0,0,0x29		; 未知*
    27 00007C27 FFFFFFFF                        		DD		0xffffffff		; 未知*
    28 00007C2B 4B 41 4C 49 4E 4F 54 45 2D 4F   		DB		"KALINOTE-OS"	; 磁盘名称(11字节)
       00007C35 53 
    29 00007C36 46 41 54 31 32 20 20 20         		DB		"FAT12   "		; 磁盘格式名称(8字节)
    30 00007C3E 00 00 00 00 00 00 00 00 00 00   		RESB	18				; 空18字节
       00007C48 00 00 00 00 00 00 00 00 
    31 00007C50                                 
    32 00007C50                                 ; 程序主体
    33 00007C50                                 
    34 00007C50                                 entry:
    35 00007C50 B8 0000                         		MOV		AX,0			; 初始化寄存器
    36 00007C53 8E D0                           		MOV		SS,AX
    37 00007C55 BC 7C00                         		MOV		SP,0x7c00
    38 00007C58 8E D8                           		MOV		DS,AX
    39 00007C5A                                 		
    40 00007C5A                                 ; 读取磁盘
    41 00007C5A                                 		
    42 00007C5A B8 0820                         		MOV		AX,0x0820
    43 00007C5D 8E C0                           		MOV		ES,AX
    44 00007C5F B5 00                           		MOV		CH,0			; 柱面0
    45 00007C61 B6 00                           		MOV		DH,0			; 磁头0
    46 00007C63 B1 02                           		MOV		CL,2			; 扇区2
    47 00007C65                                 
    48 00007C65                                 readloop:
    49 00007C65 BE 0000                         		MOV		SI,0			; 记录失败次数
    50 00007C68                                 		
    51 00007C68                                 retry:
    52 00007C68                                 ; 启动失败，尝试重新启动
    53 00007C68 B4 02                           		MOV		AH,0x02			; 读盘
    54 00007C6A B0 01                           		MOV		AL,1			; 1个扇区
    55 00007C6C BB 0000                         		MOV		BX,0
    56 00007C6F B2 00                           		MOV		DL,0x00			; A驱动器
    57 00007C71 CD 13                           		INT		0x13			; 调用磁盘BIOS
    58 00007C73 73 10                           		JNC		next			; 没有出错的话跳转到next
    59 00007C75 83 C6 01                        		ADD		SI,1			; SI加1
    60 00007C78 83 FE 05                        		CMP		SI,5			; SI和5比较
    61 00007C7B 73 35                           		JAE		error			; 超过5次重试，报错
    62 00007C7D B4 00                           		MOV		AH,0x00
    63 00007C7F B2 00                           		MOV		DL,0x00			; A驱动器
    64 00007C81 CD 13                           		INT		0x13			; 重置驱动器
    65 00007C83 EB E3                           		JMP		retry
    66 00007C85                                 		
    67 00007C85                                 next:
    68 00007C85 8C C0                           		MOV		AX,ES			; 内存地址后移0x200
    69 00007C87 05 0020                         		ADD		AX,0x0020
    70 00007C8A 8E C0                           		MOV		ES,AX
    71 00007C8C 80 C1 01                        		ADD		CL,1			; CL加1
    72 00007C8F 80 F9 12                        		CMP		CL,18			; CL和18比较
    73 00007C92 76 D1                           		JBE		readloop		; 如果CL小于18，跳到readloop重复读取
    74 00007C94 B1 01                           		MOV		CL,1
    75 00007C96 80 C6 01                        		ADD		DH,1
    76 00007C99 80 FE 02                        		CMP		DH,2
    77 00007C9C 72 C7                           		JB		readloop		; DH小于2跳转到readloop
    78 00007C9E B6 00                           		MOV		DH,0
    79 00007CA0 80 C5 01                        		ADD		CH,1
    80 00007CA3 80 FD 0A                        		CMP		CH,CYLS
    81 00007CA6 72 BD                           		JB		readloop		; CH小于CYLS跳转到readloop
    82 00007CA8                                 		
    83 00007CA8                                 ; 读取完成执行kalinote.sys
    84 00007CA8                                 		
    85 00007CA8 88 2E 0FF0                      		MOV		[0x0ff0],CH		; 记录IPL读取位置
    86 00007CAC E9 4551                         		JMP		0xc200
    87 00007CAF                                 		
    88 00007CAF                                 fin:
    89 00007CAF                                 ; 启动完成
    90 00007CAF F4                              		HLT						; 停止CPU，等待指令
    91 00007CB0 EB FD                           		JMP		fin				; 无限循环
    92 00007CB2                                 
    93 00007CB2                                 error:
    94 00007CB2                                 ; 启动错误，显示错误信息
    95 00007CB2 BE 7CC7                         		MOV		SI,msg
    96 00007CB5                                 
    97 00007CB5                                 putloop:
    98 00007CB5 8A 04                           		MOV		AL,[SI]
    99 00007CB7 83 C6 01                        		ADD		SI,1			; SI加1
   100 00007CBA 3C 00                           		CMP		AL,0
   101 00007CBC 74 F1                           		JE		fin
   102 00007CBE B4 0E                           		MOV		AH,0x0e			; 显示一个文字
   103 00007CC0 BB 000F                         		MOV		BX,15			; 指定一个颜色
   104 00007CC3 CD 10                           		INT		0x10			; 调用显卡
   105 00007CC5 EB EE                           		JMP		putloop
   106 00007CC7                                 
   107 00007CC7                                 msg:
   108 00007CC7 0A 0A                           		DB		0x0a, 0x0a		; 换行两次
   109 00007CC9 4B 61 6C 69 6E 6F 74 65 4F 53   		DB		"KalinoteOS load failed"
       00007CD3 20 6C 6F 61 64 20 66 61 69 6C 
       00007CDD 65 64 
   110 00007CDF 0A                              		DB		0x0a			; 换行
   111 00007CE0 6D 61 79 62 65 20 79 6F 75 72   		DB		"maybe your device have some error"
       00007CEA 20 64 65 76 69 63 65 20 68 61 
       00007CF4 76 65 20 73 6F 6D 65 20 65 72 
       00007CFE 72 6F 72 
   112 00007D01 00                              		DB		0
   113 00007D02                                 
   114 00007D02 00 00 00 00 00 00 00 00 00 00   		RESB	0x7dfe-$		; 填充0
       00007D0C 00 00 00 00 00 00 00 00 00 00 
       00007D16 00 00 00 00 00 00 00 00 00 00 
       00007D20 00 00 00 00 00 00 00 00 00 00 
       00007D2A 00 00 00 00 00 00 00 00 00 00 
       00007D34 00 00 00 00 00 00 00 00 00 00 
       00007D3E 00 00 00 00 00 00 00 00 00 00 
       00007D48 00 00 00 00 00 00 00 00 00 00 
       00007D52 00 00 00 00 00 00 00 00 00 00 
       00007D5C 00 00 00 00 00 00 00 00 00 00 
       00007D66 00 00 00 00 00 00 00 00 00 00 
       00007D70 00 00 00 00 00 00 00 00 00 00 
       00007D7A 00 00 00 00 00 00 00 00 00 00 
       00007D84 00 00 00 00 00 00 00 00 00 00 
       00007D8E 00 00 00 00 00 00 00 00 00 00 
       00007D98 00 00 00 00 00 00 00 00 00 00 
       00007DA2 00 00 00 00 00 00 00 00 00 00 
       00007DAC 00 00 00 00 00 00 00 00 00 00 
       00007DB6 00 00 00 00 00 00 00 00 00 00 
       00007DC0 00 00 00 00 00 00 00 00 00 00 
       00007DCA 00 00 00 00 00 00 00 00 00 00 
       00007DD4 00 00 00 00 00 00 00 00 00 00 
       00007DDE 00 00 00 00 00 00 00 00 00 00 
       00007DE8 00 00 00 00 00 00 00 00 00 00 
       00007DF2 00 00 00 00 00 00 00 00 00 00 
       00007DFC 00 00 
   115 00007DFE                                 
   116 00007DFE 55 AA                           		DB		0x55, 0xaa