     1 00000000                                 [FORMAT "WCOFF"]
     2 00000000                                 [INSTRSET "i486p"]
     3 00000000                                 [OPTIMIZE 1]
     4 00000000                                 [OPTION 1]
     5 00000000                                 [BITS 32]
     6 00000000                                 	EXTERN	_task_now
     7 00000000                                 	EXTERN	_memman_alloc_4k
     8 00000000                                 	EXTERN	_timer_alloc
     9 00000000                                 	EXTERN	_timer_init
    10 00000000                                 	EXTERN	_timer_settime
    11 00000000                                 	EXTERN	_file_readfat
    12 00000000                                 	EXTERN	_io_cli
    13 00000000                                 	EXTERN	_fifo32_status
    14 00000000                                 	EXTERN	_fifo32_get
    15 00000000                                 	EXTERN	_io_sti
    16 00000000                                 	EXTERN	_boxfill8
    17 00000000                                 	EXTERN	_sheet_refresh
    18 00000000                                 	EXTERN	_cmd_exit
    19 00000000                                 	EXTERN	_task_sleep
    20 00000000                                 	EXTERN	_putfonts8_asc_sht
    21 00000000                                 	EXTERN	_cmd_start
    22 00000000                                 	EXTERN	_cmd_run
    23 00000000                                 	EXTERN	_cmd_sysinfo
    24 00000000                                 	EXTERN	_cmd_getruntime
    25 00000000                                 	EXTERN	_cmd_echo
    26 00000000                                 	EXTERN	_cmd_sysmode
    27 00000000                                 	EXTERN	_cmd_shutdown
    28 00000000                                 	EXTERN	_cmd_langmode
    29 00000000                                 	EXTERN	_cmd_type
    30 00000000                                 	EXTERN	_cmd_dir
    31 00000000                                 	EXTERN	_cmd_cls
    32 00000000                                 	EXTERN	_cmd_mem
    33 00000000                                 	EXTERN	_file_search
    34 00000000                                 	EXTERN	_file_loadfile
    35 00000000                                 	EXTERN	_memman_free_4k
    36 00000000                                 	EXTERN	_set_segmdesc
    37 00000000                                 	EXTERN	_start_app
    38 00000000                                 	EXTERN	_timer_cancelall
    39 00000000                                 	EXTERN	_sheet_free
    40 00000000                                 	EXTERN	_change_wtitle8
    41 00000000                                 	EXTERN	_fifo32_put
    42 00000000                                 	EXTERN	_task_alloc
    43 00000000                                 	EXTERN	_task_run
    44 00000000                                 	EXTERN	_fifo32_init
    45 00000000                                 	EXTERN	_sheet_alloc
    46 00000000                                 	EXTERN	_sheet_setbuf
    47 00000000                                 	EXTERN	_make_window8
    48 00000000                                 	EXTERN	_make_textbox8
    49 00000000                                 	EXTERN	_make_icon
    50 00000000                                 	EXTERN	_taskctl
    51 00000000                                 	EXTERN	_vsprintf
    52 00000000                                 [FILE "console.c"]
    53                                          [SECTION .text]
    54 00000000                                 	GLOBAL	_console_task
    55 00000000                                 _console_task:
    56 00000000 55                              	PUSH	EBP
    57 00000001 89 E5                           	MOV	EBP,ESP
    58 00000003 57                              	PUSH	EDI
    59 00000004 56                              	PUSH	ESI
    60 00000005 53                              	PUSH	EBX
    61 00000006 81 EC 000000B0                  	SUB	ESP,176
    62 0000000C E8 [00000000]                   	CALL	_task_now
    63 00000011 68 00002D00                     	PUSH	11520
    64 00000016 89 C7                           	MOV	EDI,EAX
    65 00000018 68 003C0000                     	PUSH	3932160
    66 0000001D E8 [00000000]                   	CALL	_memman_alloc_4k
    67 00000022 8B 4D 08                        	MOV	ECX,DWORD [8+EBP]
    68 00000025 8B 1D 00000FE8                  	MOV	EBX,DWORD [4072]
    69 0000002B 89 4D D4                        	MOV	DWORD [-44+EBP],ECX
    70 0000002E 89 85 FFFFFF48                  	MOV	DWORD [-184+EBP],EAX
    71 00000034 85 C9                           	TEST	ECX,ECX
    72 00000036 A1 00010000                     	MOV	EAX,DWORD [65536]
    73 0000003B 89 85 FFFFFF44                  	MOV	DWORD [-188+EBP],EAX
    74 00000041 8D 45 D4                        	LEA	EAX,DWORD [-44+EBP]
    75 00000044 89 87 00000110                  	MOV	DWORD [272+EDI],EAX
    76 0000004A 8D 85 FFFFFF54                  	LEA	EAX,DWORD [-172+EBP]
    77 00000050 89 87 00000124                  	MOV	DWORD [292+EDI],EAX
    78 00000056 5E                              	POP	ESI
    79 00000057 C7 45 D8 00000008               	MOV	DWORD [-40+EBP],8
    80 0000005E C7 45 DC 0000001C               	MOV	DWORD [-36+EBP],28
    81 00000065 C7 45 E0 FFFFFFFF               	MOV	DWORD [-32+EBP],-1
    82 0000006C 58                              	POP	EAX
    83 0000006D 74 21                           	JE	L2
    84 0000006F E8 [00000000]                   	CALL	_timer_alloc
    85 00000074 8D 57 10                        	LEA	EDX,DWORD [16+EDI]
    86 00000077 6A 01                           	PUSH	1
    87 00000079 52                              	PUSH	EDX
    88 0000007A 89 45 E4                        	MOV	DWORD [-28+EBP],EAX
    89 0000007D 50                              	PUSH	EAX
    90 0000007E E8 [00000000]                   	CALL	_timer_init
    91 00000083 6A 32                           	PUSH	50
    92 00000085 FF 75 E4                        	PUSH	DWORD [-28+EBP]
    93 00000088 E8 [00000000]                   	CALL	_timer_settime
    94 0000008D 83 C4 14                        	ADD	ESP,20
    95 00000090                                 L2:
    96 00000090 68 00100200                     	PUSH	1049088
    97 00000095 BE 00000007                     	MOV	ESI,7
    98 0000009A FF B5 FFFFFF48                  	PUSH	DWORD [-184+EBP]
    99 000000A0 E8 [00000000]                   	CALL	_file_readfat
   100 000000A5 58                              	POP	EAX
   101 000000A6 5A                              	POP	EDX
   102 000000A7 31 C0                           	XOR	EAX,EAX
   103 000000A9                                 L7:
   104 000000A9 C7 84 05 FFFFFF74 00000000      	MOV	DWORD [-140+EBP+EAX*1],0
   105 000000B4 83 C0 0C                        	ADD	EAX,12
   106 000000B7 4E                              	DEC	ESI
   107 000000B8 79 EF                           	JNS	L7
   108 000000BA 8D 85 FFFFFF74                  	LEA	EAX,DWORD [-140+EBP]
   109 000000C0 89 87 0000011C                  	MOV	DWORD [284+EDI],EAX
   110 000000C6 8B 85 FFFFFF48                  	MOV	EAX,DWORD [-184+EBP]
   111 000000CC 89 87 00000120                  	MOV	DWORD [288+EDI],EAX
   112 000000D2 80 BB 00001000 FF               	CMP	BYTE [4096+EBX],-1
   113 000000D9 C6 87 00000129 00               	MOV	BYTE [297+EDI],0
   114 000000E0 0F 95 87 00000128               	SETNE	BYTE [296+EDI]
   115 000000E7 8B 45 D4                        	MOV	EAX,DWORD [-44+EBP]
   116 000000EA 83 78 1C 05                     	CMP	DWORD [28+EAX],5
   117 000000EE 74 2F                           	JE	L17
   118 000000F0 8B 8D FFFFFF44                  	MOV	ECX,DWORD [-188+EBP]
   119 000000F6 D9 EE                           	FLDZ
   120 000000F8 DD 01                           	FLD	QWORD [ECX]
   121 000000FA DD E1                           	FUCOM	ST1
   122 000000FC DF E0                           	FNSTSW	AX
   123 000000FE DD D9                           	FSTP	ST1
   124 00000100 9E                              	SAHF
   125 00000101 0F 85 000003D8                  	JNE	L11
   126 00000107 0F 8A 000003D2                  	JP	L11
   127 0000010D DD D8                           	FSTP	ST0
   128 0000010F 6A 01                           	PUSH	1
   129 00000111 6A 3E                           	PUSH	62
   130 00000113                                 L69:
   131 00000113 8D 45 D4                        	LEA	EAX,DWORD [-44+EBP]
   132 00000116 50                              	PUSH	EAX
   133 00000117 E8 000003E8                     	CALL	_cons_putchar
   134 0000011C 83 C4 0C                        	ADD	ESP,12
   135 0000011F                                 L17:
   136 0000011F 8D 5F 10                        	LEA	EBX,DWORD [16+EDI]
   137 00000122 E8 [00000000]                   	CALL	_io_cli
   138 00000127 53                              	PUSH	EBX
   139 00000128 E8 [00000000]                   	CALL	_fifo32_status
   140 0000012D 5E                              	POP	ESI
   141 0000012E 85 C0                           	TEST	EAX,EAX
   142 00000130 0F 84 00000398                  	JE	L76
   143 00000136 53                              	PUSH	EBX
   144 00000137 E8 [00000000]                   	CALL	_fifo32_get
   145 0000013C 89 C6                           	MOV	ESI,EAX
   146 0000013E E8 [00000000]                   	CALL	_io_sti
   147 00000143 59                              	POP	ECX
   148 00000144 83 FE 01                        	CMP	ESI,1
   149 00000147 0F 8E 0000032A                  	JLE	L77
   150 0000014D                                 L22:
   151 0000014D 83 FE 02                        	CMP	ESI,2
   152 00000150 0F 84 00000315                  	JE	L78
   153 00000156                                 L27:
   154 00000156 83 FE 03                        	CMP	ESI,3
   155 00000159 0F 84 000002DA                  	JE	L79
   156 0000015F                                 L28:
   157 0000015F 83 FE 04                        	CMP	ESI,4
   158 00000162 0F 84 000002BB                  	JE	L80
   159 00000168                                 L30:
   160 00000168 8D 86 FFFFFF00                  	LEA	EAX,DWORD [-256+ESI]
   161 0000016E 3D 000000FF                     	CMP	EAX,255
   162 00000173 77 77                           	JA	L31
   163 00000175 8B 45 D4                        	MOV	EAX,DWORD [-44+EBP]
   164 00000178 83 78 1C 05                     	CMP	DWORD [28+EAX],5
   165 0000017C 74 6E                           	JE	L31
   166 0000017E 81 FE 00000108                  	CMP	ESI,264
   167 00000184 0F 84 00000246                  	JE	L81
   168 0000018A 81 FE 0000010A                  	CMP	ESI,266
   169 00000190 0F 84 000000FA                  	JE	L82
   170 00000196 8B 4D D8                        	MOV	ECX,DWORD [-40+EBP]
   171 00000199 81 F9 000001FF                  	CMP	ECX,511
   172 0000019F 7F 4B                           	JG	L31
   173 000001A1 8B 9D FFFFFF44                  	MOV	EBX,DWORD [-188+EBP]
   174 000001A7 D9 EE                           	FLDZ
   175 000001A9 DD 03                           	FLD	QWORD [EBX]
   176 000001AB DD E1                           	FUCOM	ST1
   177 000001AD DF E0                           	FNSTSW	AX
   178 000001AF DD D9                           	FSTP	ST1
   179 000001B1 9E                              	SAHF
   180 000001B2 0F 85 00000093                  	JNE	L59
   181 000001B8 0F 8A 0000008D                  	JP	L59
   182 000001BE DD D8                           	FSTP	ST0
   183 000001C0 89 C8                           	MOV	EAX,ECX
   184 000001C2 BA 00000008                     	MOV	EDX,8
   185 000001C7 89 D3                           	MOV	EBX,EDX
   186 000001C9 99                              	CDQ
   187 000001CA F7 FB                           	IDIV	EBX
   188 000001CC 89 C1                           	MOV	ECX,EAX
   189 000001CE 89 F0                           	MOV	EAX,ESI
   190 000001D0 88 84 0D FFFFFF52               	MOV	BYTE [-174+EBP+ECX*1],AL
   191 000001D7                                 L61:
   192 000001D7 6A 01                           	PUSH	1
   193 000001D9 8D 86 FFFFFF00                  	LEA	EAX,DWORD [-256+ESI]
   194 000001DF 50                              	PUSH	EAX
   195 000001E0                                 L70:
   196 000001E0 8D 45 D4                        	LEA	EAX,DWORD [-44+EBP]
   197 000001E3 50                              	PUSH	EAX
   198 000001E4                                 L71:
   199 000001E4 E8 0000031B                     	CALL	_cons_putchar
   200 000001E9                                 L72:
   201 000001E9 83 C4 0C                        	ADD	ESP,12
   202 000001EC                                 L31:
   203 000001EC 83 7D 08 00                     	CMP	DWORD [8+EBP],0
   204 000001F0 0F 84 FFFFFF29                  	JE	L17
   205 000001F6 8B 45 D4                        	MOV	EAX,DWORD [-44+EBP]
   206 000001F9 83 78 1C 05                     	CMP	DWORD [28+EAX],5
   207 000001FD 0F 84 FFFFFF1C                  	JE	L17
   208 00000203 8B 5D E0                        	MOV	EBX,DWORD [-32+EBP]
   209 00000206 85 DB                           	TEST	EBX,EBX
   210 00000208 78 21                           	JS	L66
   211 0000020A 8B 4D DC                        	MOV	ECX,DWORD [-36+EBP]
   212 0000020D 8B 55 D8                        	MOV	EDX,DWORD [-40+EBP]
   213 00000210 8D 41 0F                        	LEA	EAX,DWORD [15+ECX]
   214 00000213 50                              	PUSH	EAX
   215 00000214 8D 42 07                        	LEA	EAX,DWORD [7+EDX]
   216 00000217 50                              	PUSH	EAX
   217 00000218 51                              	PUSH	ECX
   218 00000219 8B 4D 08                        	MOV	ECX,DWORD [8+EBP]
   219 0000021C 52                              	PUSH	EDX
   220 0000021D 53                              	PUSH	EBX
   221 0000021E FF 71 04                        	PUSH	DWORD [4+ECX]
   222 00000221 FF 31                           	PUSH	DWORD [ECX]
   223 00000223 E8 [00000000]                   	CALL	_boxfill8
   224 00000228 83 C4 1C                        	ADD	ESP,28
   225 0000022B                                 L66:
   226 0000022B 8B 4D DC                        	MOV	ECX,DWORD [-36+EBP]
   227 0000022E 8B 55 D8                        	MOV	EDX,DWORD [-40+EBP]
   228 00000231 8D 41 10                        	LEA	EAX,DWORD [16+ECX]
   229 00000234 50                              	PUSH	EAX
   230 00000235 8D 42 08                        	LEA	EAX,DWORD [8+EDX]
   231 00000238 50                              	PUSH	EAX
   232 00000239 51                              	PUSH	ECX
   233 0000023A 52                              	PUSH	EDX
   234 0000023B FF 75 08                        	PUSH	DWORD [8+EBP]
   235 0000023E E8 [00000000]                   	CALL	_sheet_refresh
   236 00000243 83 C4 14                        	ADD	ESP,20
   237 00000246 E9 FFFFFED4                     	JMP	L17
   238 0000024B                                 L59:
   239 0000024B D9 E8                           	FLD1
   240 0000024D D9 C9                           	FXCH	ST1
   241 0000024F DA E9                           	FUCOMPP
   242 00000251 DF E0                           	FNSTSW	AX
   243 00000253 9E                              	SAHF
   244 00000254 75 1E                           	JNE	L62
   245 00000256 7A 1C                           	JP	L62
   246 00000258 89 C8                           	MOV	EAX,ECX
   247 0000025A BA 00000008                     	MOV	EDX,8
   248 0000025F 89 D3                           	MOV	EBX,EDX
   249 00000261 99                              	CDQ
   250 00000262 F7 FB                           	IDIV	EBX
   251 00000264 89 C1                           	MOV	ECX,EAX
   252 00000266 89 F0                           	MOV	EAX,ESI
   253 00000268 88 84 0D FFFFFF4C               	MOV	BYTE [-180+EBP+ECX*1],AL
   254 0000026F E9 FFFFFF63                     	JMP	L61
   255 00000274                                 L62:
   256 00000274 89 C8                           	MOV	EAX,ECX
   257 00000276 BA 00000008                     	MOV	EDX,8
   258 0000027B 89 D3                           	MOV	EBX,EDX
   259 0000027D 99                              	CDQ
   260 0000027E F7 FB                           	IDIV	EBX
   261 00000280 89 C1                           	MOV	ECX,EAX
   262 00000282 89 F0                           	MOV	EAX,ESI
   263 00000284 88 84 0D FFFFFF44               	MOV	BYTE [-188+EBP+ECX*1],AL
   264 0000028B E9 FFFFFF47                     	JMP	L61
   265 00000290                                 L82:
   266 00000290 6A 00                           	PUSH	0
   267 00000292 8D 45 D4                        	LEA	EAX,DWORD [-44+EBP]
   268 00000295 6A 20                           	PUSH	32
   269 00000297 50                              	PUSH	EAX
   270 00000298 E8 00000267                     	CALL	_cons_putchar
   271 0000029D 83 C4 0C                        	ADD	ESP,12
   272 000002A0 8B 8D FFFFFF44                  	MOV	ECX,DWORD [-188+EBP]
   273 000002A6 D9 EE                           	FLDZ
   274 000002A8 DD 01                           	FLD	QWORD [ECX]
   275 000002AA DD E1                           	FUCOM	ST1
   276 000002AC DF E0                           	FNSTSW	AX
   277 000002AE DD D9                           	FSTP	ST1
   278 000002B0 9E                              	SAHF
   279 000002B1 0F 85 000000D8                  	JNE	L44
   280 000002B7 0F 8A 000000D2                  	JP	L44
   281 000002BD DD D8                           	FSTP	ST0
   282 000002BF 8B 45 D8                        	MOV	EAX,DWORD [-40+EBP]
   283 000002C2 BA 00000008                     	MOV	EDX,8
   284 000002C7 89 D1                           	MOV	ECX,EDX
   285 000002C9 99                              	CDQ
   286 000002CA F7 F9                           	IDIV	ECX
   287 000002CC C6 84 05 FFFFFF52 00            	MOV	BYTE [-174+EBP+EAX*1],0
   288 000002D4                                 L46:
   289 000002D4 8D 5D D4                        	LEA	EBX,DWORD [-44+EBP]
   290 000002D7 53                              	PUSH	EBX
   291 000002D8 E8 00000362                     	CALL	_cons_newline
   292 000002DD 8B 85 FFFFFF44                  	MOV	EAX,DWORD [-188+EBP]
   293 000002E3 DD 00                           	FLD	QWORD [EAX]
   294 000002E5 D9 BD FFFFFF52                  	FNSTCW	WORD [-174+EBP]
   295 000002EB 66 8B 85 FFFFFF52               	MOV	AX,WORD [-174+EBP]
   296 000002F2 66 0D 0C00                      	OR	AX,3072
   297 000002F6 66 89 85 FFFFFF50               	MOV	WORD [-176+EBP],AX
   298 000002FD D9 AD FFFFFF50                  	FLDCW	WORD [-176+EBP]
   299 00000303 DF 9D FFFFFF4E                  	FISTP	WORD [-178+EBP]
   300 00000309 D9 AD FFFFFF52                  	FLDCW	WORD [-174+EBP]
   301 0000030F 66 8B 85 FFFFFF4E               	MOV	AX,WORD [-178+EBP]
   302 00000316 0F BE C0                        	MOVSX	EAX,AL
   303 00000319 50                              	PUSH	EAX
   304 0000031A 8D 85 FFFFFF54                  	LEA	EAX,DWORD [-172+EBP]
   305 00000320 FF 75 0C                        	PUSH	DWORD [12+EBP]
   306 00000323 FF B5 FFFFFF48                  	PUSH	DWORD [-184+EBP]
   307 00000329 53                              	PUSH	EBX
   308 0000032A 50                              	PUSH	EAX
   309 0000032B E8 00000461                     	CALL	_cons_runcmd
   310 00000330 83 C4 18                        	ADD	ESP,24
   311 00000333 83 7D 08 00                     	CMP	DWORD [8+EBP],0
   312 00000337 74 46                           	JE	L83
   313 00000339                                 L50:
   314 00000339 8B 8D FFFFFF44                  	MOV	ECX,DWORD [-188+EBP]
   315 0000033F D9 EE                           	FLDZ
   316 00000341 DD 01                           	FLD	QWORD [ECX]
   317 00000343 DD E1                           	FUCOM	ST1
   318 00000345 DF E0                           	FNSTSW	AX
   319 00000347 DD D9                           	FSTP	ST1
   320 00000349 9E                              	SAHF
   321 0000034A 75 0E                           	JNE	L51
   322 0000034C 7A 0C                           	JP	L51
   323 0000034E DD D8                           	FSTP	ST0
   324 00000350 6A 01                           	PUSH	1
   325 00000352 6A 3E                           	PUSH	62
   326 00000354 53                              	PUSH	EBX
   327 00000355 E9 FFFFFE8A                     	JMP	L71
   328 0000035A                                 L51:
   329 0000035A D9 E8                           	FLD1
   330 0000035C D9 C9                           	FXCH	ST1
   331 0000035E DA E9                           	FUCOMPP
   332 00000360 DF E0                           	FNSTSW	AX
   333 00000362 9E                              	SAHF
   334 00000363 75 0E                           	JNE	L54
   335 00000365 7A 0C                           	JP	L54
   336 00000367 6A 01                           	PUSH	1
   337 00000369 68 00002711                     	PUSH	10001
   338 0000036E E9 FFFFFE6D                     	JMP	L70
   339 00000373                                 L54:
   340 00000373 6A 01                           	PUSH	1
   341 00000375 68 00002712                     	PUSH	10002
   342 0000037A E9 FFFFFE61                     	JMP	L70
   343 0000037F                                 L83:
   344 0000037F FF B5 FFFFFF48                  	PUSH	DWORD [-184+EBP]
   345 00000385 53                              	PUSH	EBX
   346 00000386 E8 [00000000]                   	CALL	_cmd_exit
   347 0000038B 58                              	POP	EAX
   348 0000038C 5A                              	POP	EDX
   349 0000038D EB AA                           	JMP	L50
   350 0000038F                                 L44:
   351 0000038F D9 E8                           	FLD1
   352 00000391 D9 C9                           	FXCH	ST1
   353 00000393 DA E9                           	FUCOMPP
   354 00000395 DF E0                           	FNSTSW	AX
   355 00000397 9E                              	SAHF
   356 00000398 75 1C                           	JNE	L47
   357 0000039A 7A 1A                           	JP	L47
   358 0000039C 8B 45 D8                        	MOV	EAX,DWORD [-40+EBP]
   359 0000039F BA 00000008                     	MOV	EDX,8
   360 000003A4 89 D1                           	MOV	ECX,EDX
   361 000003A6 99                              	CDQ
   362 000003A7 F7 F9                           	IDIV	ECX
   363 000003A9 C6 84 05 FFFFFF4C 00            	MOV	BYTE [-180+EBP+EAX*1],0
   364 000003B1 E9 FFFFFF1E                     	JMP	L46
   365 000003B6                                 L47:
   366 000003B6 8B 45 D8                        	MOV	EAX,DWORD [-40+EBP]
   367 000003B9 BA 00000008                     	MOV	EDX,8
   368 000003BE 89 D3                           	MOV	EBX,EDX
   369 000003C0 99                              	CDQ
   370 000003C1 F7 FB                           	IDIV	EBX
   371 000003C3 C6 84 05 FFFFFF44 00            	MOV	BYTE [-188+EBP+EAX*1],0
   372 000003CB E9 FFFFFF04                     	JMP	L46
   373 000003D0                                 L81:
   374 000003D0 8B 8D FFFFFF44                  	MOV	ECX,DWORD [-188+EBP]
   375 000003D6 D9 EE                           	FLDZ
   376 000003D8 DD 01                           	FLD	QWORD [ECX]
   377 000003DA DD E1                           	FUCOM	ST1
   378 000003DC DF E0                           	FNSTSW	AX
   379 000003DE DD D9                           	FSTP	ST1
   380 000003E0 9E                              	SAHF
   381 000003E1 75 24                           	JNE	L33
   382 000003E3 7A 22                           	JP	L33
   383 000003E5 DD D8                           	FSTP	ST0
   384 000003E7 83 7D D8 10                     	CMP	DWORD [-40+EBP],16
   385 000003EB                                 L75:
   386 000003EB 0F 8E FFFFFDFB                  	JLE	L31
   387 000003F1 6A 00                           	PUSH	0
   388 000003F3 8D 45 D4                        	LEA	EAX,DWORD [-44+EBP]
   389 000003F6 6A 20                           	PUSH	32
   390 000003F8 50                              	PUSH	EAX
   391 000003F9 E8 00000106                     	CALL	_cons_putchar
   392 000003FE 83 6D D8 08                     	SUB	DWORD [-40+EBP],8
   393 00000402 E9 FFFFFDE2                     	JMP	L72
   394 00000407                                 L33:
   395 00000407 D9 E8                           	FLD1
   396 00000409 D9 C9                           	FXCH	ST1
   397 0000040B DA E9                           	FUCOMPP
   398 0000040D DF E0                           	FNSTSW	AX
   399 0000040F 9E                              	SAHF
   400 00000410 75 08                           	JNE	L37
   401 00000412 7A 06                           	JP	L37
   402 00000414 83 7D D8 40                     	CMP	DWORD [-40+EBP],64
   403 00000418 EB D1                           	JMP	L75
   404 0000041A                                 L37:
   405 0000041A 81 7D D8 00000080               	CMP	DWORD [-40+EBP],128
   406 00000421 EB C8                           	JMP	L75
   407 00000423                                 L80:
   408 00000423 FF B5 FFFFFF48                  	PUSH	DWORD [-184+EBP]
   409 00000429 8D 45 D4                        	LEA	EAX,DWORD [-44+EBP]
   410 0000042C 50                              	PUSH	EAX
   411 0000042D E8 [00000000]                   	CALL	_cmd_exit
   412 00000432 59                              	POP	ECX
   413 00000433 5B                              	POP	EBX
   414 00000434 E9 FFFFFD2F                     	JMP	L30
   415 00000439                                 L79:
   416 00000439 8B 5D D4                        	MOV	EBX,DWORD [-44+EBP]
   417 0000043C 85 DB                           	TEST	EBX,EBX
   418 0000043E 74 1F                           	JE	L29
   419 00000440 8B 4D DC                        	MOV	ECX,DWORD [-36+EBP]
   420 00000443 8B 55 D8                        	MOV	EDX,DWORD [-40+EBP]
   421 00000446 8D 41 0F                        	LEA	EAX,DWORD [15+ECX]
   422 00000449 50                              	PUSH	EAX
   423 0000044A 8D 42 07                        	LEA	EAX,DWORD [7+EDX]
   424 0000044D 50                              	PUSH	EAX
   425 0000044E 51                              	PUSH	ECX
   426 0000044F 52                              	PUSH	EDX
   427 00000450 6A 00                           	PUSH	0
   428 00000452 FF 73 04                        	PUSH	DWORD [4+EBX]
   429 00000455 FF 33                           	PUSH	DWORD [EBX]
   430 00000457 E8 [00000000]                   	CALL	_boxfill8
   431 0000045C 83 C4 1C                        	ADD	ESP,28
   432 0000045F                                 L29:
   433 0000045F C7 45 E0 FFFFFFFF               	MOV	DWORD [-32+EBP],-1
   434 00000466 E9 FFFFFCF4                     	JMP	L28
   435 0000046B                                 L78:
   436 0000046B C7 45 E0 00FFFFFF               	MOV	DWORD [-32+EBP],16777215
   437 00000472 E9 FFFFFCDF                     	JMP	L27
   438 00000477                                 L77:
   439 00000477 83 7D D4 00                     	CMP	DWORD [-44+EBP],0
   440 0000047B 0F 84 FFFFFCCC                  	JE	L22
   441 00000481 85 F6                           	TEST	ESI,ESI
   442 00000483 74 2C                           	JE	L23
   443 00000485 6A 00                           	PUSH	0
   444 00000487 53                              	PUSH	EBX
   445 00000488 FF 75 E4                        	PUSH	DWORD [-28+EBP]
   446 0000048B E8 [00000000]                   	CALL	_timer_init
   447 00000490 83 C4 0C                        	ADD	ESP,12
   448 00000493 83 7D E0 00                     	CMP	DWORD [-32+EBP],0
   449 00000497 78 07                           	JS	L25
   450 00000499 C7 45 E0 00FFFFFF               	MOV	DWORD [-32+EBP],16777215
   451 000004A0                                 L25:
   452 000004A0 6A 32                           	PUSH	50
   453 000004A2 FF 75 E4                        	PUSH	DWORD [-28+EBP]
   454 000004A5 E8 [00000000]                   	CALL	_timer_settime
   455 000004AA 58                              	POP	EAX
   456 000004AB 5A                              	POP	EDX
   457 000004AC E9 FFFFFC9C                     	JMP	L22
   458 000004B1                                 L23:
   459 000004B1 6A 01                           	PUSH	1
   460 000004B3 53                              	PUSH	EBX
   461 000004B4 FF 75 E4                        	PUSH	DWORD [-28+EBP]
   462 000004B7 E8 [00000000]                   	CALL	_timer_init
   463 000004BC 83 C4 0C                        	ADD	ESP,12
   464 000004BF 83 7D E0 00                     	CMP	DWORD [-32+EBP],0
   465 000004C3 78 DB                           	JS	L25
   466 000004C5 C7 45 E0 00000000               	MOV	DWORD [-32+EBP],0
   467 000004CC EB D2                           	JMP	L25
   468 000004CE                                 L76:
   469 000004CE 57                              	PUSH	EDI
   470 000004CF E8 [00000000]                   	CALL	_task_sleep
   471 000004D4 E8 [00000000]                   	CALL	_io_sti
   472 000004D9 5B                              	POP	EBX
   473 000004DA E9 FFFFFC40                     	JMP	L17
   474 000004DF                                 L11:
   475 000004DF D9 E8                           	FLD1
   476 000004E1 D9 C9                           	FXCH	ST1
   477 000004E3 DA E9                           	FUCOMPP
   478 000004E5 DF E0                           	FNSTSW	AX
   479 000004E7 9E                              	SAHF
   480 000004E8 75 0E                           	JNE	L14
   481 000004EA 7A 0C                           	JP	L14
   482 000004EC 6A 01                           	PUSH	1
   483 000004EE 68 00002711                     	PUSH	10001
   484 000004F3 E9 FFFFFC1B                     	JMP	L69
   485 000004F8                                 L14:
   486 000004F8 6A 01                           	PUSH	1
   487 000004FA 68 00002712                     	PUSH	10002
   488 000004FF E9 FFFFFC0F                     	JMP	L69
   489                                          [SECTION .data]
   490 00000000                                 LC5:
   491 00000000 55 4E 4B 4E 4F 57 53 59 53 4D   	DB	"UNKNOWSYSMODE >",0x00
       0000000A 4F 44 45 20 3E 00 
   492 00000010                                 LC4:
   493 00000010 44 45 42 55 47 20 3E 00         	DB	"DEBUG >",0x00
   494 00000018                                 LC3:
   495 00000018 20 00                           	DB	" ",0x00
   496                                          [SECTION .text]
   497 00000504                                 	GLOBAL	_cons_putchar
   498 00000504                                 _cons_putchar:
   499 00000504 55                              	PUSH	EBP
   500 00000505 89 E5                           	MOV	EBP,ESP
   501 00000507 53                              	PUSH	EBX
   502 00000508 50                              	PUSH	EAX
   503 00000509 8B 55 0C                        	MOV	EDX,DWORD [12+EBP]
   504 0000050C 8A 45 10                        	MOV	AL,BYTE [16+EBP]
   505 0000050F 8B 5D 08                        	MOV	EBX,DWORD [8+EBP]
   506 00000512 88 45 F9                        	MOV	BYTE [-7+EBP],AL
   507 00000515 88 55 FA                        	MOV	BYTE [-6+EBP],DL
   508 00000518 80 FA 09                        	CMP	DL,9
   509 0000051B C6 45 FB 00                     	MOV	BYTE [-5+EBP],0
   510 0000051F 0F 84 000000CC                  	JE	L86
   511 00000525 80 FA 0A                        	CMP	DL,10
   512 00000528 74 3A                           	JE	L110
   513 0000052A 80 FA 0D                        	CMP	DL,13
   514 0000052D 74 30                           	JE	L84
   515 0000052F 81 FA 00002711                  	CMP	EDX,10001
   516 00000535 0F 84 00000083                  	JE	L112
   517 0000053B 81 FA 00002712                  	CMP	EDX,10002
   518 00000541 74 48                           	JE	L113
   519 00000543 8B 13                           	MOV	EDX,DWORD [EBX]
   520 00000545 85 D2                           	TEST	EDX,EDX
   521 00000547 75 24                           	JNE	L114
   522 00000549                                 L107:
   523 00000549 80 7D F9 00                     	CMP	BYTE [-7+EBP],0
   524 0000054D 74 10                           	JE	L84
   525 0000054F 8B 43 04                        	MOV	EAX,DWORD [4+EBX]
   526 00000552 83 C0 08                        	ADD	EAX,8
   527 00000555                                 L111:
   528 00000555 89 43 04                        	MOV	DWORD [4+EBX],EAX
   529 00000558 3D 00000208                     	CMP	EAX,520
   530 0000055D 74 05                           	JE	L110
   531 0000055F                                 L84:
   532 0000055F 8B 5D FC                        	MOV	EBX,DWORD [-4+EBP]
   533 00000562 C9                              	LEAVE
   534 00000563 C3                              	RET
   535 00000564                                 L110:
   536 00000564 53                              	PUSH	EBX
   537 00000565 E8 000000D5                     	CALL	_cons_newline
   538 0000056A 58                              	POP	EAX
   539 0000056B EB F2                           	JMP	L84
   540 0000056D                                 L114:
   541 0000056D 6A 01                           	PUSH	1
   542 0000056F 8D 45 FA                        	LEA	EAX,DWORD [-6+EBP]
   543 00000572 50                              	PUSH	EAX
   544 00000573 6A 00                           	PUSH	0
   545 00000575 68 00FFFFFF                     	PUSH	16777215
   546 0000057A FF 73 08                        	PUSH	DWORD [8+EBX]
   547 0000057D FF 73 04                        	PUSH	DWORD [4+EBX]
   548 00000580 52                              	PUSH	EDX
   549 00000581 E8 [00000000]                   	CALL	_putfonts8_asc_sht
   550 00000586 83 C4 1C                        	ADD	ESP,28
   551 00000589 EB BE                           	JMP	L107
   552 0000058B                                 L113:
   553 0000058B 8B 03                           	MOV	EAX,DWORD [EBX]
   554 0000058D 85 C0                           	TEST	EAX,EAX
   555 0000058F 75 0E                           	JNE	L115
   556 00000591                                 L103:
   557 00000591 80 7D F9 00                     	CMP	BYTE [-7+EBP],0
   558 00000595 74 C8                           	JE	L84
   559 00000597 8B 43 04                        	MOV	EAX,DWORD [4+EBX]
   560 0000059A 83 C0 78                        	ADD	EAX,120
   561 0000059D EB B6                           	JMP	L111
   562 0000059F                                 L115:
   563 0000059F 6A 0F                           	PUSH	15
   564 000005A1 68 [00000000]                   	PUSH	LC5
   565 000005A6 6A 00                           	PUSH	0
   566 000005A8 68 00FFFFFF                     	PUSH	16777215
   567 000005AD FF 73 08                        	PUSH	DWORD [8+EBX]
   568 000005B0 FF 73 04                        	PUSH	DWORD [4+EBX]
   569 000005B3 50                              	PUSH	EAX
   570 000005B4 E8 [00000000]                   	CALL	_putfonts8_asc_sht
   571 000005B9 83 C4 1C                        	ADD	ESP,28
   572 000005BC EB D3                           	JMP	L103
   573 000005BE                                 L112:
   574 000005BE 8B 03                           	MOV	EAX,DWORD [EBX]
   575 000005C0 85 C0                           	TEST	EAX,EAX
   576 000005C2 75 0E                           	JNE	L116
   577 000005C4                                 L98:
   578 000005C4 80 7D F9 00                     	CMP	BYTE [-7+EBP],0
   579 000005C8 74 95                           	JE	L84
   580 000005CA 8B 43 04                        	MOV	EAX,DWORD [4+EBX]
   581 000005CD 83 C0 38                        	ADD	EAX,56
   582 000005D0 EB 83                           	JMP	L111
   583 000005D2                                 L116:
   584 000005D2 6A 07                           	PUSH	7
   585 000005D4 68 [00000010]                   	PUSH	LC4
   586 000005D9 6A 00                           	PUSH	0
   587 000005DB 68 00FFFFFF                     	PUSH	16777215
   588 000005E0 FF 73 08                        	PUSH	DWORD [8+EBX]
   589 000005E3 FF 73 04                        	PUSH	DWORD [4+EBX]
   590 000005E6 50                              	PUSH	EAX
   591 000005E7 E8 [00000000]                   	CALL	_putfonts8_asc_sht
   592 000005EC 83 C4 1C                        	ADD	ESP,28
   593 000005EF EB D3                           	JMP	L98
   594 000005F1                                 L86:
   595 000005F1 8B 03                           	MOV	EAX,DWORD [EBX]
   596 000005F3 85 C0                           	TEST	EAX,EAX
   597 000005F5 75 29                           	JNE	L117
   598 000005F7                                 L89:
   599 000005F7 8B 43 04                        	MOV	EAX,DWORD [4+EBX]
   600 000005FA 83 C0 08                        	ADD	EAX,8
   601 000005FD 89 43 04                        	MOV	DWORD [4+EBX],EAX
   602 00000600 3D 00000208                     	CMP	EAX,520
   603 00000605 74 10                           	JE	L118
   604 00000607                                 L90:
   605 00000607 8B 43 04                        	MOV	EAX,DWORD [4+EBX]
   606 0000060A 83 E8 08                        	SUB	EAX,8
   607 0000060D 83 E0 1F                        	AND	EAX,31
   608 00000610 75 DF                           	JNE	L86
   609 00000612 E9 FFFFFF48                     	JMP	L84
   610 00000617                                 L118:
   611 00000617 53                              	PUSH	EBX
   612 00000618 E8 00000022                     	CALL	_cons_newline
   613 0000061D 58                              	POP	EAX
   614 0000061E EB E7                           	JMP	L90
   615 00000620                                 L117:
   616 00000620 6A 01                           	PUSH	1
   617 00000622 68 [00000018]                   	PUSH	LC3
   618 00000627 6A 00                           	PUSH	0
   619 00000629 68 00FFFFFF                     	PUSH	16777215
   620 0000062E FF 73 08                        	PUSH	DWORD [8+EBX]
   621 00000631 FF 73 04                        	PUSH	DWORD [4+EBX]
   622 00000634 50                              	PUSH	EAX
   623 00000635 E8 [00000000]                   	CALL	_putfonts8_asc_sht
   624 0000063A 83 C4 1C                        	ADD	ESP,28
   625 0000063D EB B8                           	JMP	L89
   626 0000063F                                 	GLOBAL	_cons_newline
   627 0000063F                                 _cons_newline:
   628 0000063F 55                              	PUSH	EBP
   629 00000640 89 E5                           	MOV	EBP,ESP
   630 00000642 57                              	PUSH	EDI
   631 00000643 56                              	PUSH	ESI
   632 00000644 53                              	PUSH	EBX
   633 00000645 83 EC 0C                        	SUB	ESP,12
   634 00000648 8B 45 08                        	MOV	EAX,DWORD [8+EBP]
   635 0000064B 8B 00                           	MOV	EAX,DWORD [EAX]
   636 0000064D 89 45 F0                        	MOV	DWORD [-16+EBP],EAX
   637 00000650 E8 [00000000]                   	CALL	_task_now
   638 00000655 8B 55 08                        	MOV	EDX,DWORD [8+EBP]
   639 00000658 89 45 EC                        	MOV	DWORD [-20+EBP],EAX
   640 0000065B 8B 42 08                        	MOV	EAX,DWORD [8+EDX]
   641 0000065E 3D 000001CB                     	CMP	EAX,459
   642 00000663 7F 36                           	JG	L120
   643 00000665 83 C0 10                        	ADD	EAX,16
   644 00000668 89 42 08                        	MOV	DWORD [8+EDX],EAX
   645 0000066B                                 L121:
   646 0000066B 8B 45 08                        	MOV	EAX,DWORD [8+EBP]
   647 0000066E 8B 55 EC                        	MOV	EDX,DWORD [-20+EBP]
   648 00000671 C7 40 04 00000008               	MOV	DWORD [4+EAX],8
   649 00000678 80 BA 00000128 01               	CMP	BYTE [296+EDX],1
   650 0000067F 74 08                           	JE	L158
   651 00000681                                 L119:
   652 00000681 8D 65 F4                        	LEA	ESP,DWORD [-12+EBP]
   653 00000684 5B                              	POP	EBX
   654 00000685 5E                              	POP	ESI
   655 00000686 5F                              	POP	EDI
   656 00000687 5D                              	POP	EBP
   657 00000688 C3                              	RET
   658 00000689                                 L158:
   659 00000689 80 BA 00000129 00               	CMP	BYTE [297+EDX],0
   660 00000690 74 EF                           	JE	L119
   661 00000692 C7 40 04 00000010               	MOV	DWORD [4+EAX],16
   662 00000699 EB E6                           	JMP	L119
   663 0000069B                                 L120:
   664 0000069B 83 7D F0 00                     	CMP	DWORD [-16+EBP],0
   665 0000069F 74 CA                           	JE	L121
   666 000006A1 BE 0000001C                     	MOV	ESI,28
   667 000006A6                                 L132:
   668 000006A6 8B 45 F0                        	MOV	EAX,DWORD [-16+EBP]
   669 000006A9 BB 00000008                     	MOV	EBX,8
   670 000006AE 8B 00                           	MOV	EAX,DWORD [EAX]
   671 000006B0 89 45 E8                        	MOV	DWORD [-24+EBP],EAX
   672 000006B3                                 L131:
   673 000006B3 8B 55 F0                        	MOV	EDX,DWORD [-16+EBP]
   674 000006B6 8D 46 10                        	LEA	EAX,DWORD [16+ESI]
   675 000006B9 8B 7D E8                        	MOV	EDI,DWORD [-24+EBP]
   676 000006BC 8B 4A 04                        	MOV	ECX,DWORD [4+EDX]
   677 000006BF 89 F2                           	MOV	EDX,ESI
   678 000006C1 0F AF C1                        	IMUL	EAX,ECX
   679 000006C4 0F AF D1                        	IMUL	EDX,ECX
   680 000006C7 8D 04 18                        	LEA	EAX,DWORD [EAX+EBX*1]
   681 000006CA 8D 14 1A                        	LEA	EDX,DWORD [EDX+EBX*1]
   682 000006CD 43                              	INC	EBX
   683 000006CE 8B 04 87                        	MOV	EAX,DWORD [EDI+EAX*4]
   684 000006D1 81 FB 00000207                  	CMP	EBX,519
   685 000006D7 89 04 97                        	MOV	DWORD [EDI+EDX*4],EAX
   686 000006DA 7E D7                           	JLE	L131
   687 000006DC 46                              	INC	ESI
   688 000006DD 81 FE 000001CB                  	CMP	ESI,459
   689 000006E3 7E C1                           	JLE	L132
   690 000006E5 BE 000001CC                     	MOV	ESI,460
   691 000006EA                                 L142:
   692 000006EA BB 00000008                     	MOV	EBX,8
   693 000006EF                                 L141:
   694 000006EF 8B 55 F0                        	MOV	EDX,DWORD [-16+EBP]
   695 000006F2 89 F0                           	MOV	EAX,ESI
   696 000006F4 0F AF 42 04                     	IMUL	EAX,DWORD [4+EDX]
   697 000006F8 8D 04 18                        	LEA	EAX,DWORD [EAX+EBX*1]
   698 000006FB 43                              	INC	EBX
   699 000006FC 81 FB 00000207                  	CMP	EBX,519
   700 00000702 C7 04 87 00000000               	MOV	DWORD [EDI+EAX*4],0
   701 00000709 7E E4                           	JLE	L141
   702 0000070B 46                              	INC	ESI
   703 0000070C 81 FE 000001DB                  	CMP	ESI,475
   704 00000712 7E D6                           	JLE	L142
   705 00000714 68 000001DC                     	PUSH	476
   706 00000719 68 00000208                     	PUSH	520
   707 0000071E 6A 1C                           	PUSH	28
   708 00000720 6A 08                           	PUSH	8
   709 00000722 52                              	PUSH	EDX
   710 00000723 E8 [00000000]                   	CALL	_sheet_refresh
   711 00000728 83 C4 14                        	ADD	ESP,20
   712 0000072B E9 FFFFFF3B                     	JMP	L121
   713 00000730                                 	GLOBAL	_cons_putstr0
   714 00000730                                 _cons_putstr0:
   715 00000730 55                              	PUSH	EBP
   716 00000731 89 E5                           	MOV	EBP,ESP
   717 00000733 56                              	PUSH	ESI
   718 00000734 53                              	PUSH	EBX
   719 00000735 8B 5D 0C                        	MOV	EBX,DWORD [12+EBP]
   720 00000738 8B 75 08                        	MOV	ESI,DWORD [8+EBP]
   721 0000073B 80 3B 00                        	CMP	BYTE [EBX],0
   722 0000073E 75 07                           	JNE	L164
   723 00000740                                 L166:
   724 00000740 8D 65 F8                        	LEA	ESP,DWORD [-8+EBP]
   725 00000743 5B                              	POP	EBX
   726 00000744 5E                              	POP	ESI
   727 00000745 5D                              	POP	EBP
   728 00000746 C3                              	RET
   729 00000747                                 L164:
   730 00000747 6A 01                           	PUSH	1
   731 00000749 0F BE 03                        	MOVSX	EAX,BYTE [EBX]
   732 0000074C 50                              	PUSH	EAX
   733 0000074D 43                              	INC	EBX
   734 0000074E 56                              	PUSH	ESI
   735 0000074F E8 FFFFFDB0                     	CALL	_cons_putchar
   736 00000754 83 C4 0C                        	ADD	ESP,12
   737 00000757 80 3B 00                        	CMP	BYTE [EBX],0
   738 0000075A 75 EB                           	JNE	L164
   739 0000075C EB E2                           	JMP	L166
   740 0000075E                                 	GLOBAL	_cons_putstr1
   741 0000075E                                 _cons_putstr1:
   742 0000075E 55                              	PUSH	EBP
   743 0000075F 89 E5                           	MOV	EBP,ESP
   744 00000761 57                              	PUSH	EDI
   745 00000762 56                              	PUSH	ESI
   746 00000763 53                              	PUSH	EBX
   747 00000764 8B 75 10                        	MOV	ESI,DWORD [16+EBP]
   748 00000767 31 DB                           	XOR	EBX,EBX
   749 00000769 8B 7D 0C                        	MOV	EDI,DWORD [12+EBP]
   750 0000076C 39 F3                           	CMP	EBX,ESI
   751 0000076E 7C 08                           	JL	L172
   752 00000770                                 L174:
   753 00000770 8D 65 F4                        	LEA	ESP,DWORD [-12+EBP]
   754 00000773 5B                              	POP	EBX
   755 00000774 5E                              	POP	ESI
   756 00000775 5F                              	POP	EDI
   757 00000776 5D                              	POP	EBP
   758 00000777 C3                              	RET
   759 00000778                                 L172:
   760 00000778 6A 01                           	PUSH	1
   761 0000077A 0F BE 04 3B                     	MOVSX	EAX,BYTE [EBX+EDI*1]
   762 0000077E 50                              	PUSH	EAX
   763 0000077F 43                              	INC	EBX
   764 00000780 FF 75 08                        	PUSH	DWORD [8+EBP]
   765 00000783 E8 FFFFFD7C                     	CALL	_cons_putchar
   766 00000788 83 C4 0C                        	ADD	ESP,12
   767 0000078B 39 F3                           	CMP	EBX,ESI
   768 0000078D 7C E9                           	JL	L172
   769 0000078F EB DF                           	JMP	L174
   770                                          [SECTION .data]
   771 0000001A                                 LC9:
   772 0000001A 6D 65 6D 00                     	DB	"mem",0x00
   773 0000001E                                 LC8:
   774 0000001E 63 6F 6D 6D 61 6E 64 3E 74 72   	DB	"command>try run %s at %d",0x0A,0x00
       00000028 79 20 72 75 6E 20 25 73 20 61 
       00000032 74 20 25 64 0A 00 
   775 00000038                                 LC10:
   776 00000038 63 6C 73 00                     	DB	"cls",0x00
   777 0000003C                                 LC11:
   778 0000003C 63 6C 65 61 72 00               	DB	"clear",0x00
   779 00000042                                 LC12:
   780 00000042 64 69 72 00                     	DB	"dir",0x00
   781 00000046                                 LC13:
   782 00000046 6C 73 00                        	DB	"ls",0x00
   783 00000049                                 LC14:
   784 00000049 74 79 70 65 20 00               	DB	"type ",0x00
   785 0000004F                                 LC15:
   786 0000004F 65 78 69 74 00                  	DB	"exit",0x00
   787 00000054                                 LC16:
   788 00000054 63 61 6E 6E 6F 74 20 72 75 6E   	DB	"cannot run this command in debug console",0x0A,0x00
       0000005E 20 74 68 69 73 20 63 6F 6D 6D 
       00000068 61 6E 64 20 69 6E 20 64 65 62 
       00000072 75 67 20 63 6F 6E 73 6F 6C 65 
       0000007C 0A 00 
   789 0000007E                                 LC17:
   790 0000007E 73 74 61 72 74 20 00            	DB	"start ",0x00
   791 00000085                                 LC18:
   792 00000085 72 75 6E 20 00                  	DB	"run ",0x00
   793 0000008A                                 LC19:
   794 0000008A 6C 61 6E 67 6D 6F 64 65 20 00   	DB	"langmode ",0x00
   795 00000094                                 LC20:
   796 00000094 73 68 75 74 64 6F 77 6E 00      	DB	"shutdown",0x00
   797 0000009D                                 LC21:
   798 0000009D 73 79 73 6D 6F 64 65 20 00      	DB	"sysmode ",0x00
   799 000000A6                                 LC22:
   800 000000A6 65 63 68 6F 20 00               	DB	"echo ",0x00
   801 000000AC                                 LC23:
   802 000000AC 67 65 74 72 75 6E 74 69 6D 65   	DB	"getruntime",0x00
       000000B6 00 
   803 000000B7                                 LC24:
   804 000000B7 73 79 73 69 6E 66 6F 00         	DB	"sysinfo",0x00
   805 000000BF                                 LC25:
   806 000000BF 22 00                           	DB	0x22,0x00
   807 000000C1                                 LC26:
   808 000000C1 22 20 69 73 20 6E 6F 74 20 61   	DB	0x22," is not a command.",0x0A,0x0A,0x00
       000000CB 20 63 6F 6D 6D 61 6E 64 2E 0A 
       000000D5 0A 00 
   809                                          [SECTION .text]
   810 00000791                                 	GLOBAL	_cons_runcmd
   811 00000791                                 _cons_runcmd:
   812 00000791 55                              	PUSH	EBP
   813 00000792 89 E5                           	MOV	EBP,ESP
   814 00000794 57                              	PUSH	EDI
   815 00000795 56                              	PUSH	ESI
   816 00000796 BF [0000001A]                   	MOV	EDI,LC9
   817 0000079B 53                              	PUSH	EBX
   818 0000079C 83 EC 0C                        	SUB	ESP,12
   819 0000079F 8B 45 0C                        	MOV	EAX,DWORD [12+EBP]
   820 000007A2 8B 55 10                        	MOV	EDX,DWORD [16+EBP]
   821 000007A5 8B 75 14                        	MOV	ESI,DWORD [20+EBP]
   822 000007A8 8B 5D 08                        	MOV	EBX,DWORD [8+EBP]
   823 000007AB 89 45 E8                        	MOV	DWORD [-24+EBP],EAX
   824 000007AE 89 55 F0                        	MOV	DWORD [-16+EBP],EDX
   825 000007B1 89 75 EC                        	MOV	DWORD [-20+EBP],ESI
   826 000007B4 89 DE                           	MOV	ESI,EBX
   827 000007B6 50                              	PUSH	EAX
   828 000007B7 53                              	PUSH	EBX
   829 000007B8 68 [0000001E]                   	PUSH	LC8
   830 000007BD E8 000007D2                     	CALL	_debug_print
   831 000007C2 B9 00000004                     	MOV	ECX,4
   832 000007C7 FC                              	CLD
   833 000007C8 F3                              	REPE
   834 000007C9 A6                              	CMPSB
   835 000007CA 0F 97 C2                        	SETA	DL
   836 000007CD 0F 92 C0                        	SETB	AL
   837 000007D0 83 C4 0C                        	ADD	ESP,12
   838 000007D3 38 C2                           	CMP	DL,AL
   839 000007D5 0F 84 00000292                  	JE	L212
   840 000007DB FC                              	CLD
   841 000007DC BF [00000038]                   	MOV	EDI,LC10
   842 000007E1 B9 00000004                     	MOV	ECX,4
   843 000007E6 89 DE                           	MOV	ESI,EBX
   844 000007E8 F3                              	REPE
   845 000007E9 A6                              	CMPSB
   846 000007EA 74 10                           	JE	L179
   847 000007EC BF [0000003C]                   	MOV	EDI,LC11
   848 000007F1 B9 00000006                     	MOV	ECX,6
   849 000007F6 89 DE                           	MOV	ESI,EBX
   850 000007F8 F3                              	REPE
   851 000007F9 A6                              	CMPSB
   852 000007FA 75 0C                           	JNE	L178
   853 000007FC                                 L179:
   854 000007FC 8B 45 E8                        	MOV	EAX,DWORD [-24+EBP]
   855 000007FF 83 38 00                        	CMP	DWORD [EAX],0
   856 00000802 0F 85 00000256                  	JNE	L213
   857 00000808                                 L178:
   858 00000808 FC                              	CLD
   859 00000809 BF [00000042]                   	MOV	EDI,LC12
   860 0000080E B9 00000004                     	MOV	ECX,4
   861 00000813 89 DE                           	MOV	ESI,EBX
   862 00000815 F3                              	REPE
   863 00000816 A6                              	CMPSB
   864 00000817 74 10                           	JE	L182
   865 00000819 BF [00000046]                   	MOV	EDI,LC13
   866 0000081E B9 00000003                     	MOV	ECX,3
   867 00000823 89 DE                           	MOV	ESI,EBX
   868 00000825 F3                              	REPE
   869 00000826 A6                              	CMPSB
   870 00000827 75 0C                           	JNE	L181
   871 00000829                                 L182:
   872 00000829 8B 45 E8                        	MOV	EAX,DWORD [-24+EBP]
   873 0000082C 83 38 00                        	CMP	DWORD [EAX],0
   874 0000082F 0F 85 0000021A                  	JNE	L214
   875 00000835                                 L181:
   876 00000835 FC                              	CLD
   877 00000836 BF [00000049]                   	MOV	EDI,LC14
   878 0000083B B9 00000005                     	MOV	ECX,5
   879 00000840 89 DE                           	MOV	ESI,EBX
   880 00000842 F3                              	REPE
   881 00000843 A6                              	CMPSB
   882 00000844 75 0C                           	JNE	L184
   883 00000846 8B 45 E8                        	MOV	EAX,DWORD [-24+EBP]
   884 00000849 83 38 00                        	CMP	DWORD [EAX],0
   885 0000084C 0F 85 000001E5                  	JNE	L215
   886 00000852                                 L184:
   887 00000852 FC                              	CLD
   888 00000853 BF [0000004F]                   	MOV	EDI,LC15
   889 00000858 B9 00000005                     	MOV	ECX,5
   890 0000085D 89 DE                           	MOV	ESI,EBX
   891 0000085F F3                              	REPE
   892 00000860 A6                              	CMPSB
   893 00000861 75 39                           	JNE	L186
   894 00000863 8B 55 E8                        	MOV	EDX,DWORD [-24+EBP]
   895 00000866 8B 02                           	MOV	EAX,DWORD [EDX]
   896 00000868 83 78 1C 05                     	CMP	DWORD [28+EAX],5
   897 0000086C 74 18                           	JE	L211
   898 0000086E 8B 75 F0                        	MOV	ESI,DWORD [-16+EBP]
   899 00000871 8B 45 E8                        	MOV	EAX,DWORD [-24+EBP]
   900 00000874 89 75 0C                        	MOV	DWORD [12+EBP],ESI
   901 00000877 89 45 08                        	MOV	DWORD [8+EBP],EAX
   902 0000087A 8D 65 F4                        	LEA	ESP,DWORD [-12+EBP]
   903 0000087D 5B                              	POP	EBX
   904 0000087E 5E                              	POP	ESI
   905 0000087F 5F                              	POP	EDI
   906 00000880 5D                              	POP	EBP
   907 00000881 E9 [00000000]                   	JMP	_cmd_exit
   908 00000886                                 L211:
   909 00000886 C7 45 0C [00000054]             	MOV	DWORD [12+EBP],LC16
   910 0000088D                                 L209:
   911 0000088D 89 55 08                        	MOV	DWORD [8+EBP],EDX
   912 00000890 8D 65 F4                        	LEA	ESP,DWORD [-12+EBP]
   913 00000893 5B                              	POP	EBX
   914 00000894 5E                              	POP	ESI
   915 00000895 5F                              	POP	EDI
   916 00000896 5D                              	POP	EBP
   917 00000897 E9 FFFFFE94                     	JMP	_cons_putstr0
   918 0000089C                                 L186:
   919 0000089C FC                              	CLD
   920 0000089D BF [0000007E]                   	MOV	EDI,LC17
   921 000008A2 B9 00000006                     	MOV	ECX,6
   922 000008A7 89 DE                           	MOV	ESI,EBX
   923 000008A9 F3                              	REPE
   924 000008AA A6                              	CMPSB
   925 000008AB 75 26                           	JNE	L189
   926 000008AD 8B 55 E8                        	MOV	EDX,DWORD [-24+EBP]
   927 000008B0 8B 02                           	MOV	EAX,DWORD [EDX]
   928 000008B2 83 78 1C 05                     	CMP	DWORD [28+EAX],5
   929 000008B6 74 CE                           	JE	L211
   930 000008B8 8B 75 EC                        	MOV	ESI,DWORD [-20+EBP]
   931 000008BB 8B 45 E8                        	MOV	EAX,DWORD [-24+EBP]
   932 000008BE 89 75 10                        	MOV	DWORD [16+EBP],ESI
   933 000008C1 89 5D 0C                        	MOV	DWORD [12+EBP],EBX
   934 000008C4 89 45 08                        	MOV	DWORD [8+EBP],EAX
   935 000008C7 8D 65 F4                        	LEA	ESP,DWORD [-12+EBP]
   936 000008CA 5B                              	POP	EBX
   937 000008CB 5E                              	POP	ESI
   938 000008CC 5F                              	POP	EDI
   939 000008CD 5D                              	POP	EBP
   940 000008CE E9 [00000000]                   	JMP	_cmd_start
   941 000008D3                                 L189:
   942 000008D3 FC                              	CLD
   943 000008D4 BF [00000085]                   	MOV	EDI,LC18
   944 000008D9 B9 00000004                     	MOV	ECX,4
   945 000008DE 89 DE                           	MOV	ESI,EBX
   946 000008E0 F3                              	REPE
   947 000008E1 A6                              	CMPSB
   948 000008E2 75 26                           	JNE	L192
   949 000008E4 8B 55 E8                        	MOV	EDX,DWORD [-24+EBP]
   950 000008E7 8B 02                           	MOV	EAX,DWORD [EDX]
   951 000008E9 83 78 1C 05                     	CMP	DWORD [28+EAX],5
   952 000008ED 74 97                           	JE	L211
   953 000008EF 8B 75 EC                        	MOV	ESI,DWORD [-20+EBP]
   954 000008F2 8B 45 E8                        	MOV	EAX,DWORD [-24+EBP]
   955 000008F5 89 75 10                        	MOV	DWORD [16+EBP],ESI
   956 000008F8 89 5D 0C                        	MOV	DWORD [12+EBP],EBX
   957 000008FB 89 45 08                        	MOV	DWORD [8+EBP],EAX
   958 000008FE 8D 65 F4                        	LEA	ESP,DWORD [-12+EBP]
   959 00000901 5B                              	POP	EBX
   960 00000902 5E                              	POP	ESI
   961 00000903 5F                              	POP	EDI
   962 00000904 5D                              	POP	EBP
   963 00000905 E9 [00000000]                   	JMP	_cmd_run
   964 0000090A                                 L192:
   965 0000090A FC                              	CLD
   966 0000090B BF [0000008A]                   	MOV	EDI,LC19
   967 00000910 B9 00000009                     	MOV	ECX,9
   968 00000915 89 DE                           	MOV	ESI,EBX
   969 00000917 F3                              	REPE
   970 00000918 A6                              	CMPSB
   971 00000919 0F 84 00000103                  	JE	L216
   972 0000091F FC                              	CLD
   973 00000920 BF [00000094]                   	MOV	EDI,LC20
   974 00000925 B9 00000009                     	MOV	ECX,9
   975 0000092A 89 DE                           	MOV	ESI,EBX
   976 0000092C F3                              	REPE
   977 0000092D A6                              	CMPSB
   978 0000092E 0F 84 000000E2                  	JE	L217
   979 00000934 FC                              	CLD
   980 00000935 BF [0000009D]                   	MOV	EDI,LC21
   981 0000093A B9 00000008                     	MOV	ECX,8
   982 0000093F 89 DE                           	MOV	ESI,EBX
   983 00000941 F3                              	REPE
   984 00000942 A6                              	CMPSB
   985 00000943 0F 84 000000B8                  	JE	L218
   986 00000949 FC                              	CLD
   987 0000094A BF [000000A6]                   	MOV	EDI,LC22
   988 0000094F B9 00000005                     	MOV	ECX,5
   989 00000954 89 DE                           	MOV	ESI,EBX
   990 00000956 F3                              	REPE
   991 00000957 A6                              	CMPSB
   992 00000958 0F 84 0000008E                  	JE	L219
   993 0000095E FC                              	CLD
   994 0000095F BF [000000AC]                   	MOV	EDI,LC23
   995 00000964 B9 0000000B                     	MOV	ECX,11
   996 00000969 89 DE                           	MOV	ESI,EBX
   997 0000096B F3                              	REPE
   998 0000096C A6                              	CMPSB
   999 0000096D 74 6B                           	JE	L220
  1000 0000096F FC                              	CLD
  1001 00000970 BF [000000B7]                   	MOV	EDI,LC24
  1002 00000975 B9 00000008                     	MOV	ECX,8
  1003 0000097A 89 DE                           	MOV	ESI,EBX
  1004 0000097C F3                              	REPE
  1005 0000097D A6                              	CMPSB
  1006 0000097E 74 48                           	JE	L221
  1007 00000980 80 3B 00                        	CMP	BYTE [EBX],0
  1008 00000983 75 08                           	JNE	L222
  1009 00000985                                 L175:
  1010 00000985 8D 65 F4                        	LEA	ESP,DWORD [-12+EBP]
  1011 00000988 5B                              	POP	EBX
  1012 00000989 5E                              	POP	ESI
  1013 0000098A 5F                              	POP	EDI
  1014 0000098B 5D                              	POP	EBP
  1015 0000098C C3                              	RET
  1016 0000098D                                 L222:
  1017 0000098D 53                              	PUSH	EBX
  1018 0000098E FF 75 F0                        	PUSH	DWORD [-16+EBP]
  1019 00000991 FF 75 E8                        	PUSH	DWORD [-24+EBP]
  1020 00000994 E8 000000EC                     	CALL	_cmd_app
  1021 00000999 83 C4 0C                        	ADD	ESP,12
  1022 0000099C 85 C0                           	TEST	EAX,EAX
  1023 0000099E 75 E5                           	JNE	L175
  1024 000009A0 68 [000000BF]                   	PUSH	LC25
  1025 000009A5 FF 75 E8                        	PUSH	DWORD [-24+EBP]
  1026 000009A8 E8 FFFFFD83                     	CALL	_cons_putstr0
  1027 000009AD 53                              	PUSH	EBX
  1028 000009AE FF 75 E8                        	PUSH	DWORD [-24+EBP]
  1029 000009B1 E8 FFFFFD7A                     	CALL	_cons_putstr0
  1030 000009B6 8B 55 E8                        	MOV	EDX,DWORD [-24+EBP]
  1031 000009B9 83 C4 10                        	ADD	ESP,16
  1032 000009BC C7 45 0C [000000C1]             	MOV	DWORD [12+EBP],LC26
  1033 000009C3 E9 FFFFFEC5                     	JMP	L209
  1034 000009C8                                 L221:
  1035 000009C8 8B 45 E8                        	MOV	EAX,DWORD [-24+EBP]
  1036 000009CB 89 45 08                        	MOV	DWORD [8+EBP],EAX
  1037 000009CE 8D 65 F4                        	LEA	ESP,DWORD [-12+EBP]
  1038 000009D1 5B                              	POP	EBX
  1039 000009D2 5E                              	POP	ESI
  1040 000009D3 5F                              	POP	EDI
  1041 000009D4 5D                              	POP	EBP
  1042 000009D5 E9 [00000000]                   	JMP	_cmd_sysinfo
  1043 000009DA                                 L220:
  1044 000009DA 8B 45 E8                        	MOV	EAX,DWORD [-24+EBP]
  1045 000009DD 89 45 08                        	MOV	DWORD [8+EBP],EAX
  1046 000009E0 8D 65 F4                        	LEA	ESP,DWORD [-12+EBP]
  1047 000009E3 5B                              	POP	EBX
  1048 000009E4 5E                              	POP	ESI
  1049 000009E5 5F                              	POP	EDI
  1050 000009E6 5D                              	POP	EBP
  1051 000009E7 E9 [00000000]                   	JMP	_cmd_getruntime
  1052 000009EC                                 L219:
  1053 000009EC 8B 45 E8                        	MOV	EAX,DWORD [-24+EBP]
  1054 000009EF 89 5D 0C                        	MOV	DWORD [12+EBP],EBX
  1055 000009F2 89 45 08                        	MOV	DWORD [8+EBP],EAX
  1056 000009F5 8D 65 F4                        	LEA	ESP,DWORD [-12+EBP]
  1057 000009F8 5B                              	POP	EBX
  1058 000009F9 5E                              	POP	ESI
  1059 000009FA 5F                              	POP	EDI
  1060 000009FB 5D                              	POP	EBP
  1061 000009FC E9 [00000000]                   	JMP	_cmd_echo
  1062 00000A01                                 L218:
  1063 00000A01 8B 45 E8                        	MOV	EAX,DWORD [-24+EBP]
  1064 00000A04 89 5D 0C                        	MOV	DWORD [12+EBP],EBX
  1065 00000A07 89 45 08                        	MOV	DWORD [8+EBP],EAX
  1066 00000A0A 8D 65 F4                        	LEA	ESP,DWORD [-12+EBP]
  1067 00000A0D 5B                              	POP	EBX
  1068 00000A0E 5E                              	POP	ESI
  1069 00000A0F 5F                              	POP	EDI
  1070 00000A10 5D                              	POP	EBP
  1071 00000A11 E9 [00000000]                   	JMP	_cmd_sysmode
  1072 00000A16                                 L217:
  1073 00000A16 8D 65 F4                        	LEA	ESP,DWORD [-12+EBP]
  1074 00000A19 5B                              	POP	EBX
  1075 00000A1A 5E                              	POP	ESI
  1076 00000A1B 5F                              	POP	EDI
  1077 00000A1C 5D                              	POP	EBP
  1078 00000A1D E9 [00000000]                   	JMP	_cmd_shutdown
  1079 00000A22                                 L216:
  1080 00000A22 8B 45 E8                        	MOV	EAX,DWORD [-24+EBP]
  1081 00000A25 89 5D 0C                        	MOV	DWORD [12+EBP],EBX
  1082 00000A28 89 45 08                        	MOV	DWORD [8+EBP],EAX
  1083 00000A2B 8D 65 F4                        	LEA	ESP,DWORD [-12+EBP]
  1084 00000A2E 5B                              	POP	EBX
  1085 00000A2F 5E                              	POP	ESI
  1086 00000A30 5F                              	POP	EDI
  1087 00000A31 5D                              	POP	EBP
  1088 00000A32 E9 [00000000]                   	JMP	_cmd_langmode
  1089 00000A37                                 L215:
  1090 00000A37 8B 55 F0                        	MOV	EDX,DWORD [-16+EBP]
  1091 00000A3A 89 5D 10                        	MOV	DWORD [16+EBP],EBX
  1092 00000A3D 89 55 0C                        	MOV	DWORD [12+EBP],EDX
  1093 00000A40 89 45 08                        	MOV	DWORD [8+EBP],EAX
  1094 00000A43 8D 65 F4                        	LEA	ESP,DWORD [-12+EBP]
  1095 00000A46 5B                              	POP	EBX
  1096 00000A47 5E                              	POP	ESI
  1097 00000A48 5F                              	POP	EDI
  1098 00000A49 5D                              	POP	EBP
  1099 00000A4A E9 [00000000]                   	JMP	_cmd_type
  1100 00000A4F                                 L214:
  1101 00000A4F 89 45 08                        	MOV	DWORD [8+EBP],EAX
  1102 00000A52 8D 65 F4                        	LEA	ESP,DWORD [-12+EBP]
  1103 00000A55 5B                              	POP	EBX
  1104 00000A56 5E                              	POP	ESI
  1105 00000A57 5F                              	POP	EDI
  1106 00000A58 5D                              	POP	EBP
  1107 00000A59 E9 [00000000]                   	JMP	_cmd_dir
  1108 00000A5E                                 L213:
  1109 00000A5E 89 45 08                        	MOV	DWORD [8+EBP],EAX
  1110 00000A61 8D 65 F4                        	LEA	ESP,DWORD [-12+EBP]
  1111 00000A64 5B                              	POP	EBX
  1112 00000A65 5E                              	POP	ESI
  1113 00000A66 5F                              	POP	EDI
  1114 00000A67 5D                              	POP	EBP
  1115 00000A68 E9 [00000000]                   	JMP	_cmd_cls
  1116 00000A6D                                 L212:
  1117 00000A6D 8B 45 EC                        	MOV	EAX,DWORD [-20+EBP]
  1118 00000A70 8B 55 E8                        	MOV	EDX,DWORD [-24+EBP]
  1119 00000A73 89 45 0C                        	MOV	DWORD [12+EBP],EAX
  1120 00000A76 89 55 08                        	MOV	DWORD [8+EBP],EDX
  1121 00000A79 8D 65 F4                        	LEA	ESP,DWORD [-12+EBP]
  1122 00000A7C 5B                              	POP	EBX
  1123 00000A7D 5E                              	POP	ESI
  1124 00000A7E 5F                              	POP	EDI
  1125 00000A7F 5D                              	POP	EBP
  1126 00000A80 E9 [00000000]                   	JMP	_cmd_mem
  1127                                          [SECTION .data]
  1128 000000D7                                 LC27:
  1129 000000D7 61 70 70 6C 69 63 61 74 69 6F   	DB	"application>try run %s at %d",0x0A,0x00
       000000E1 6E 3E 74 72 79 20 72 75 6E 20 
       000000EB 25 73 20 61 74 20 25 64 0A 00 
  1130 000000F5                                 LC28:
  1131 000000F5 4B 61 6C 69 00                  	DB	"Kali",0x00
  1132 000000FA                                 LC30:
  1133 000000FA 0A 55 6E 72 65 63 6F 67 6E 69   	DB	0x0A,"Unrecognized file format.",0x0A,0x00
       00000104 7A 65 64 20 66 69 6C 65 20 66 
       0000010E 6F 72 6D 61 74 2E 0A 00 
  1134 00000116                                 LC29:
  1135 00000116 B2 BB D6 A7 B3 D6 B5 C4 CE C4   	DB	0xB2,0xBB,0xD6,0xA7,0xB3,0xD6,0xB5,0xC4,0xCE,0xC4,0xBC,0xFE,0xB8,0xF1,0xCA,0xBD,0xA1,0xA3,0x00
       00000120 BC FE B8 F1 CA BD A1 A3 00 
  1136                                          [SECTION .text]
  1137 00000A85                                 	GLOBAL	_cmd_app
  1138 00000A85                                 _cmd_app:
  1139 00000A85 55                              	PUSH	EBP
  1140 00000A86 89 E5                           	MOV	EBP,ESP
  1141 00000A88 57                              	PUSH	EDI
  1142 00000A89 56                              	PUSH	ESI
  1143 00000A8A 31 F6                           	XOR	ESI,ESI
  1144 00000A8C 53                              	PUSH	EBX
  1145 00000A8D 83 EC 34                        	SUB	ESP,52
  1146 00000A90 8B 5D 10                        	MOV	EBX,DWORD [16+EBP]
  1147 00000A93 E8 [00000000]                   	CALL	_task_now
  1148 00000A98 89 45 C8                        	MOV	DWORD [-56+EBP],EAX
  1149 00000A9B                                 L229:
  1150 00000A9B 8A 04 1E                        	MOV	AL,BYTE [ESI+EBX*1]
  1151 00000A9E 3C 20                           	CMP	AL,32
  1152 00000AA0 7E 0A                           	JLE	L225
  1153 00000AA2 88 44 35 D4                     	MOV	BYTE [-44+EBP+ESI*1],AL
  1154 00000AA6 46                              	INC	ESI
  1155 00000AA7 83 FE 0C                        	CMP	ESI,12
  1156 00000AAA 7E EF                           	JLE	L229
  1157 00000AAC                                 L225:
  1158 00000AAC C6 44 35 D4 00                  	MOV	BYTE [-44+EBP+ESI*1],0
  1159 00000AB1 FF 75 08                        	PUSH	DWORD [8+EBP]
  1160 00000AB4 8D 5D D4                        	LEA	EBX,DWORD [-44+EBP]
  1161 00000AB7 53                              	PUSH	EBX
  1162 00000AB8 68 [000000D7]                   	PUSH	LC27
  1163 00000ABD E8 000004D2                     	CALL	_debug_print
  1164 00000AC2 68 000000E0                     	PUSH	224
  1165 00000AC7 68 00102600                     	PUSH	1058304
  1166 00000ACC 53                              	PUSH	EBX
  1167 00000ACD E8 [00000000]                   	CALL	_file_search
  1168 00000AD2 83 C4 18                        	ADD	ESP,24
  1169 00000AD5 85 C0                           	TEST	EAX,EAX
  1170 00000AD7 89 45 D0                        	MOV	DWORD [-48+EBP],EAX
  1171 00000ADA 0F 84 000001E0                  	JE	L262
  1172 00000AE0                                 L260:
  1173 00000AE0 8B 45 D0                        	MOV	EAX,DWORD [-48+EBP]
  1174 00000AE3 FF 70 1C                        	PUSH	DWORD [28+EAX]
  1175 00000AE6 68 003C0000                     	PUSH	3932160
  1176 00000AEB E8 [00000000]                   	CALL	_memman_alloc_4k
  1177 00000AF0 8B 55 D0                        	MOV	EDX,DWORD [-48+EBP]
  1178 00000AF3 68 00103E00                     	PUSH	1064448
  1179 00000AF8 FF 75 0C                        	PUSH	DWORD [12+EBP]
  1180 00000AFB 50                              	PUSH	EAX
  1181 00000AFC 89 45 CC                        	MOV	DWORD [-52+EBP],EAX
  1182 00000AFF FF 72 1C                        	PUSH	DWORD [28+EDX]
  1183 00000B02 0F B7 42 1A                     	MOVZX	EAX,WORD [26+EDX]
  1184 00000B06 50                              	PUSH	EAX
  1185 00000B07 E8 [00000000]                   	CALL	_file_loadfile
  1186 00000B0C 8B 45 D0                        	MOV	EAX,DWORD [-48+EBP]
  1187 00000B0F 83 C4 1C                        	ADD	ESP,28
  1188 00000B12 83 78 1C 23                     	CMP	DWORD [28+EAX],35
  1189 00000B16 76 1D                           	JBE	L232
  1190 00000B18 8B 75 CC                        	MOV	ESI,DWORD [-52+EBP]
  1191 00000B1B BF [000000F5]                   	MOV	EDI,LC28
  1192 00000B20 FC                              	CLD
  1193 00000B21 83 C6 04                        	ADD	ESI,4
  1194 00000B24 B9 00000004                     	MOV	ECX,4
  1195 00000B29 F3                              	REPE
  1196 00000B2A A6                              	CMPSB
  1197 00000B2B 75 08                           	JNE	L232
  1198 00000B2D 8B 55 CC                        	MOV	EDX,DWORD [-52+EBP]
  1199 00000B30 80 3A 00                        	CMP	BYTE [EDX],0
  1200 00000B33 74 4A                           	JE	L263
  1201 00000B35                                 L232:
  1202 00000B35 8B 55 C8                        	MOV	EDX,DWORD [-56+EBP]
  1203 00000B38 80 BA 00000128 01               	CMP	BYTE [296+EDX],1
  1204 00000B3F 74 37                           	JE	L264
  1205 00000B41 68 [000000FA]                   	PUSH	LC30
  1206 00000B46                                 L261:
  1207 00000B46 FF 75 08                        	PUSH	DWORD [8+EBP]
  1208 00000B49 E8 FFFFFBE2                     	CALL	_cons_putstr0
  1209 00000B4E 58                              	POP	EAX
  1210 00000B4F 5A                              	POP	EDX
  1211 00000B50                                 L250:
  1212 00000B50 8B 45 D0                        	MOV	EAX,DWORD [-48+EBP]
  1213 00000B53 FF 70 1C                        	PUSH	DWORD [28+EAX]
  1214 00000B56 FF 75 CC                        	PUSH	DWORD [-52+EBP]
  1215 00000B59 68 003C0000                     	PUSH	3932160
  1216 00000B5E E8 [00000000]                   	CALL	_memman_free_4k
  1217 00000B63 FF 75 08                        	PUSH	DWORD [8+EBP]
  1218 00000B66 E8 FFFFFAD4                     	CALL	_cons_newline
  1219 00000B6B B8 00000001                     	MOV	EAX,1
  1220 00000B70                                 L223:
  1221 00000B70 8D 65 F4                        	LEA	ESP,DWORD [-12+EBP]
  1222 00000B73 5B                              	POP	EBX
  1223 00000B74 5E                              	POP	ESI
  1224 00000B75 5F                              	POP	EDI
  1225 00000B76 5D                              	POP	EBP
  1226 00000B77 C3                              	RET
  1227 00000B78                                 L264:
  1228 00000B78 68 [00000116]                   	PUSH	LC29
  1229 00000B7D EB C7                           	JMP	L261
  1230 00000B7F                                 L263:
  1231 00000B7F 8B 02                           	MOV	EAX,DWORD [EDX]
  1232 00000B81 8B 52 0C                        	MOV	EDX,DWORD [12+EDX]
  1233 00000B84 89 45 C4                        	MOV	DWORD [-60+EBP],EAX
  1234 00000B87 89 55 C0                        	MOV	DWORD [-64+EBP],EDX
  1235 00000B8A 8B 45 CC                        	MOV	EAX,DWORD [-52+EBP]
  1236 00000B8D 8B 58 10                        	MOV	EBX,DWORD [16+EAX]
  1237 00000B90 8B 70 14                        	MOV	ESI,DWORD [20+EAX]
  1238 00000B93 FF 75 C4                        	PUSH	DWORD [-60+EBP]
  1239 00000B96 68 003C0000                     	PUSH	3932160
  1240 00000B9B E8 [00000000]                   	CALL	_memman_alloc_4k
  1241 00000BA0 8B 55 C8                        	MOV	EDX,DWORD [-56+EBP]
  1242 00000BA3 89 C7                           	MOV	EDI,EAX
  1243 00000BA5 89 82 00000114                  	MOV	DWORD [276+EDX],EAX
  1244 00000BAB 8B 55 D0                        	MOV	EDX,DWORD [-48+EBP]
  1245 00000BAE 68 000040FA                     	PUSH	16634
  1246 00000BB3 FF 75 CC                        	PUSH	DWORD [-52+EBP]
  1247 00000BB6 8B 42 1C                        	MOV	EAX,DWORD [28+EDX]
  1248 00000BB9 48                              	DEC	EAX
  1249 00000BBA 50                              	PUSH	EAX
  1250 00000BBB 8B 45 C8                        	MOV	EAX,DWORD [-56+EBP]
  1251 00000BBE 05 00000100                     	ADD	EAX,256
  1252 00000BC3 50                              	PUSH	EAX
  1253 00000BC4 E8 [00000000]                   	CALL	_set_segmdesc
  1254 00000BC9 8B 45 C4                        	MOV	EAX,DWORD [-60+EBP]
  1255 00000BCC 68 000040F2                     	PUSH	16626
  1256 00000BD1 48                              	DEC	EAX
  1257 00000BD2 57                              	PUSH	EDI
  1258 00000BD3 50                              	PUSH	EAX
  1259 00000BD4 8B 45 C8                        	MOV	EAX,DWORD [-56+EBP]
  1260 00000BD7 05 00000108                     	ADD	EAX,264
  1261 00000BDC 50                              	PUSH	EAX
  1262 00000BDD E8 [00000000]                   	CALL	_set_segmdesc
  1263 00000BE2 83 C4 28                        	ADD	ESP,40
  1264 00000BE5 85 DB                           	TEST	EBX,EBX
  1265 00000BE7 7E 16                           	JLE	L255
  1266 00000BE9 8B 45 CC                        	MOV	EAX,DWORD [-52+EBP]
  1267 00000BEC 8B 4D C0                        	MOV	ECX,DWORD [-64+EBP]
  1268 00000BEF 01 F9                           	ADD	ECX,EDI
  1269 00000BF1 8D 14 30                        	LEA	EDX,DWORD [EAX+ESI*1]
  1270 00000BF4 89 DE                           	MOV	ESI,EBX
  1271 00000BF6                                 L237:
  1272 00000BF6 8A 02                           	MOV	AL,BYTE [EDX]
  1273 00000BF8 42                              	INC	EDX
  1274 00000BF9 88 01                           	MOV	BYTE [ECX],AL
  1275 00000BFB 41                              	INC	ECX
  1276 00000BFC 4E                              	DEC	ESI
  1277 00000BFD 75 F7                           	JNE	L237
  1278 00000BFF                                 L255:
  1279 00000BFF 8B 45 C8                        	MOV	EAX,DWORD [-56+EBP]
  1280 00000C02 BE 000000FF                     	MOV	ESI,255
  1281 00000C07 83 C0 30                        	ADD	EAX,48
  1282 00000C0A 50                              	PUSH	EAX
  1283 00000C0B 6A 0C                           	PUSH	12
  1284 00000C0D FF 75 C0                        	PUSH	DWORD [-64+EBP]
  1285 00000C10 6A 04                           	PUSH	4
  1286 00000C12 6A 1B                           	PUSH	27
  1287 00000C14 E8 [00000000]                   	CALL	_start_app
  1288 00000C19 8B 1D 00000FE4                  	MOV	EBX,DWORD [4068]
  1289 00000C1F 83 C4 14                        	ADD	ESP,20
  1290 00000C22 81 C3 00000418                  	ADD	EBX,1048
  1291 00000C28                                 L243:
  1292 00000C28 83 7B 1C 02                     	CMP	DWORD [28+EBX],2
  1293 00000C2C 74 7A                           	JE	L265
  1294 00000C2E                                 L240:
  1295 00000C2E 83 C3 30                        	ADD	EBX,48
  1296 00000C31 4E                              	DEC	ESI
  1297 00000C32 79 F4                           	JNS	L243
  1298 00000C34 31 DB                           	XOR	EBX,EBX
  1299 00000C36 BE 00000007                     	MOV	ESI,7
  1300 00000C3B                                 L249:
  1301 00000C3B 8B 55 C8                        	MOV	EDX,DWORD [-56+EBP]
  1302 00000C3E 8B 82 0000011C                  	MOV	EAX,DWORD [284+EDX]
  1303 00000C44 83 3C 18 00                     	CMP	DWORD [EAX+EBX*1],0
  1304 00000C48 75 32                           	JNE	L266
  1305 00000C4A                                 L246:
  1306 00000C4A 83 C3 0C                        	ADD	EBX,12
  1307 00000C4D 4E                              	DEC	ESI
  1308 00000C4E 79 EB                           	JNS	L249
  1309 00000C50 8B 45 C8                        	MOV	EAX,DWORD [-56+EBP]
  1310 00000C53 83 C0 10                        	ADD	EAX,16
  1311 00000C56 50                              	PUSH	EAX
  1312 00000C57 E8 [00000000]                   	CALL	_timer_cancelall
  1313 00000C5C FF 75 C4                        	PUSH	DWORD [-60+EBP]
  1314 00000C5F 57                              	PUSH	EDI
  1315 00000C60 68 003C0000                     	PUSH	3932160
  1316 00000C65 E8 [00000000]                   	CALL	_memman_free_4k
  1317 00000C6A 83 C4 10                        	ADD	ESP,16
  1318 00000C6D 8B 45 C8                        	MOV	EAX,DWORD [-56+EBP]
  1319 00000C70 C6 80 00000129 00               	MOV	BYTE [297+EAX],0
  1320 00000C77 E9 FFFFFED4                     	JMP	L250
  1321 00000C7C                                 L266:
  1322 00000C7C FF 74 18 04                     	PUSH	DWORD [4+EAX+EBX*1]
  1323 00000C80 8B 82 0000011C                  	MOV	EAX,DWORD [284+EDX]
  1324 00000C86 FF 34 18                        	PUSH	DWORD [EAX+EBX*1]
  1325 00000C89 68 003C0000                     	PUSH	3932160
  1326 00000C8E E8 [00000000]                   	CALL	_memman_free_4k
  1327 00000C93 83 C4 0C                        	ADD	ESP,12
  1328 00000C96 8B 55 C8                        	MOV	EDX,DWORD [-56+EBP]
  1329 00000C99 8B 82 0000011C                  	MOV	EAX,DWORD [284+EDX]
  1330 00000C9F C7 04 18 00000000               	MOV	DWORD [EAX+EBX*1],0
  1331 00000CA6 EB A2                           	JMP	L246
  1332 00000CA8                                 L265:
  1333 00000CA8 8B 55 C8                        	MOV	EDX,DWORD [-56+EBP]
  1334 00000CAB 39 53 28                        	CMP	DWORD [40+EBX],EDX
  1335 00000CAE 0F 85 FFFFFF7A                  	JNE	L240
  1336 00000CB4 53                              	PUSH	EBX
  1337 00000CB5 E8 [00000000]                   	CALL	_sheet_free
  1338 00000CBA 59                              	POP	ECX
  1339 00000CBB E9 FFFFFF6E                     	JMP	L240
  1340 00000CC0                                 L262:
  1341 00000CC0 80 7C 35 D3 2E                  	CMP	BYTE [-45+EBP+ESI*1],46
  1342 00000CC5 74 2F                           	JE	L230
  1343 00000CC7 68 000000E0                     	PUSH	224
  1344 00000CCC 68 00102600                     	PUSH	1058304
  1345 00000CD1 53                              	PUSH	EBX
  1346 00000CD2 C6 44 35 D4 2E                  	MOV	BYTE [-44+EBP+ESI*1],46
  1347 00000CD7 C6 44 35 D5 4B                  	MOV	BYTE [-43+EBP+ESI*1],75
  1348 00000CDC C6 44 35 D6 41                  	MOV	BYTE [-42+EBP+ESI*1],65
  1349 00000CE1 C6 44 35 D7 4C                  	MOV	BYTE [-41+EBP+ESI*1],76
  1350 00000CE6 C6 44 35 D8 00                  	MOV	BYTE [-40+EBP+ESI*1],0
  1351 00000CEB E8 [00000000]                   	CALL	_file_search
  1352 00000CF0 83 C4 0C                        	ADD	ESP,12
  1353 00000CF3 89 45 D0                        	MOV	DWORD [-48+EBP],EAX
  1354 00000CF6                                 L230:
  1355 00000CF6 83 7D D0 00                     	CMP	DWORD [-48+EBP],0
  1356 00000CFA 0F 85 FFFFFDE0                  	JNE	L260
  1357 00000D00 31 C0                           	XOR	EAX,EAX
  1358 00000D02 E9 FFFFFE69                     	JMP	L223
  1359 00000D07                                 	GLOBAL	_keywin_off
  1360 00000D07                                 _keywin_off:
  1361 00000D07 55                              	PUSH	EBP
  1362 00000D08 89 E5                           	MOV	EBP,ESP
  1363 00000D0A 53                              	PUSH	EBX
  1364 00000D0B 8B 5D 08                        	MOV	EBX,DWORD [8+EBP]
  1365 00000D0E 8B 43 1C                        	MOV	EAX,DWORD [28+EBX]
  1366 00000D11 83 F8 04                        	CMP	EAX,4
  1367 00000D14 74 05                           	JE	L267
  1368 00000D16 83 F8 63                        	CMP	EAX,99
  1369 00000D19 7E 05                           	JLE	L270
  1370 00000D1B                                 L267:
  1371 00000D1B 8B 5D FC                        	MOV	EBX,DWORD [-4+EBP]
  1372 00000D1E C9                              	LEAVE
  1373 00000D1F C3                              	RET
  1374 00000D20                                 L270:
  1375 00000D20 6A 00                           	PUSH	0
  1376 00000D22 FF 73 2C                        	PUSH	DWORD [44+EBX]
  1377 00000D25 E8 [00000000]                   	CALL	_change_wtitle8
  1378 00000D2A 58                              	POP	EAX
  1379 00000D2B 5A                              	POP	EDX
  1380 00000D2C 83 7B 1C 03                     	CMP	DWORD [28+EBX],3
  1381 00000D30 75 E9                           	JNE	L267
  1382 00000D32 6A 03                           	PUSH	3
  1383 00000D34 8B 43 28                        	MOV	EAX,DWORD [40+EBX]
  1384 00000D37 83 C0 10                        	ADD	EAX,16
  1385 00000D3A 50                              	PUSH	EAX
  1386 00000D3B E8 [00000000]                   	CALL	_fifo32_put
  1387 00000D40 5B                              	POP	EBX
  1388 00000D41 58                              	POP	EAX
  1389 00000D42 EB D7                           	JMP	L267
  1390 00000D44                                 	GLOBAL	_keywin_on
  1391 00000D44                                 _keywin_on:
  1392 00000D44 55                              	PUSH	EBP
  1393 00000D45 89 E5                           	MOV	EBP,ESP
  1394 00000D47 53                              	PUSH	EBX
  1395 00000D48 8B 5D 08                        	MOV	EBX,DWORD [8+EBP]
  1396 00000D4B 8B 43 1C                        	MOV	EAX,DWORD [28+EBX]
  1397 00000D4E 83 F8 04                        	CMP	EAX,4
  1398 00000D51 74 05                           	JE	L271
  1399 00000D53 83 F8 63                        	CMP	EAX,99
  1400 00000D56 7E 05                           	JLE	L274
  1401 00000D58                                 L271:
  1402 00000D58 8B 5D FC                        	MOV	EBX,DWORD [-4+EBP]
  1403 00000D5B C9                              	LEAVE
  1404 00000D5C C3                              	RET
  1405 00000D5D                                 L274:
  1406 00000D5D 6A 01                           	PUSH	1
  1407 00000D5F FF 73 2C                        	PUSH	DWORD [44+EBX]
  1408 00000D62 E8 [00000000]                   	CALL	_change_wtitle8
  1409 00000D67 58                              	POP	EAX
  1410 00000D68 5A                              	POP	EDX
  1411 00000D69 83 7B 1C 03                     	CMP	DWORD [28+EBX],3
  1412 00000D6D 75 E9                           	JNE	L271
  1413 00000D6F 6A 02                           	PUSH	2
  1414 00000D71 8B 43 28                        	MOV	EAX,DWORD [40+EBX]
  1415 00000D74 83 C0 10                        	ADD	EAX,16
  1416 00000D77 50                              	PUSH	EAX
  1417 00000D78 E8 [00000000]                   	CALL	_fifo32_put
  1418 00000D7D 59                              	POP	ECX
  1419 00000D7E 5B                              	POP	EBX
  1420 00000D7F EB D7                           	JMP	L271
  1421 00000D81                                 	GLOBAL	_open_constask
  1422 00000D81                                 _open_constask:
  1423 00000D81 55                              	PUSH	EBP
  1424 00000D82 89 E5                           	MOV	EBP,ESP
  1425 00000D84 56                              	PUSH	ESI
  1426 00000D85 53                              	PUSH	EBX
  1427 00000D86 E8 [00000000]                   	CALL	_task_alloc
  1428 00000D8B 68 00000200                     	PUSH	512
  1429 00000D90 68 003C0000                     	PUSH	3932160
  1430 00000D95 89 C3                           	MOV	EBX,EAX
  1431 00000D97 E8 [00000000]                   	CALL	_memman_alloc_4k
  1432 00000D9C 68 00010000                     	PUSH	65536
  1433 00000DA1 68 003C0000                     	PUSH	3932160
  1434 00000DA6 89 C6                           	MOV	ESI,EAX
  1435 00000DA8 E8 [00000000]                   	CALL	_memman_alloc_4k
  1436 00000DAD 8B 55 08                        	MOV	EDX,DWORD [8+EBP]
  1437 00000DB0 C7 43 4C [00000000]             	MOV	DWORD [76+EBX],_console_task
  1438 00000DB7 89 83 00000118                  	MOV	DWORD [280+EBX],EAX
  1439 00000DBD 05 0000FFF4                     	ADD	EAX,65524
  1440 00000DC2 89 43 64                        	MOV	DWORD [100+EBX],EAX
  1441 00000DC5 C7 43 74 00000008               	MOV	DWORD [116+EBX],8
  1442 00000DCC C7 43 78 00000010               	MOV	DWORD [120+EBX],16
  1443 00000DD3 C7 43 7C 00000008               	MOV	DWORD [124+EBX],8
  1444 00000DDA C7 83 00000080 00000008         	MOV	DWORD [128+EBX],8
  1445 00000DE4 C7 83 00000084 00000008         	MOV	DWORD [132+EBX],8
  1446 00000DEE C7 83 00000088 00000008         	MOV	DWORD [136+EBX],8
  1447 00000DF8 89 50 04                        	MOV	DWORD [4+EAX],EDX
  1448 00000DFB 8B 53 64                        	MOV	EDX,DWORD [100+EBX]
  1449 00000DFE 8B 45 0C                        	MOV	EAX,DWORD [12+EBP]
  1450 00000E01 89 42 08                        	MOV	DWORD [8+EDX],EAX
  1451 00000E04 6A 02                           	PUSH	2
  1452 00000E06 6A 02                           	PUSH	2
  1453 00000E08 53                              	PUSH	EBX
  1454 00000E09 E8 [00000000]                   	CALL	_task_run
  1455 00000E0E 8D 43 10                        	LEA	EAX,DWORD [16+EBX]
  1456 00000E11 53                              	PUSH	EBX
  1457 00000E12 56                              	PUSH	ESI
  1458 00000E13 68 00000080                     	PUSH	128
  1459 00000E18 50                              	PUSH	EAX
  1460 00000E19 E8 [00000000]                   	CALL	_fifo32_init
  1461 00000E1E 8D 65 F8                        	LEA	ESP,DWORD [-8+EBP]
  1462 00000E21 89 D8                           	MOV	EAX,EBX
  1463 00000E23 5B                              	POP	EBX
  1464 00000E24 5E                              	POP	ESI
  1465 00000E25 5D                              	POP	EBP
  1466 00000E26 C3                              	RET
  1467                                          [SECTION .data]
  1468 00000129                                 LC32:
  1469 00000129 63 6F 6E 73 6F 6C 65 00         	DB	"console",0x00
  1470 00000131                                 LC31:
  1471 00000131 44 45 42 55 47 20 63 6F 6E 73   	DB	"DEBUG console",0x00
       0000013B 6F 6C 65 00 
  1472                                          [SECTION .text]
  1473 00000E27                                 	GLOBAL	_open_console
  1474 00000E27                                 _open_console:
  1475 00000E27 55                              	PUSH	EBP
  1476 00000E28 89 E5                           	MOV	EBP,ESP
  1477 00000E2A 56                              	PUSH	ESI
  1478 00000E2B 53                              	PUSH	EBX
  1479 00000E2C FF 75 08                        	PUSH	DWORD [8+EBP]
  1480 00000E2F E8 [00000000]                   	CALL	_sheet_alloc
  1481 00000E34 68 000F594C                     	PUSH	1005900
  1482 00000E39 68 003C0000                     	PUSH	3932160
  1483 00000E3E 89 C3                           	MOV	EBX,EAX
  1484 00000E40 E8 [00000000]                   	CALL	_memman_alloc_4k
  1485 00000E45 6A FF                           	PUSH	-1
  1486 00000E47 68 000001DF                     	PUSH	479
  1487 00000E4C 68 0000020D                     	PUSH	525
  1488 00000E51 50                              	PUSH	EAX
  1489 00000E52 53                              	PUSH	EBX
  1490 00000E53 E8 [00000000]                   	CALL	_sheet_setbuf
  1491 00000E58 83 C4 20                        	ADD	ESP,32
  1492 00000E5B 83 7D 10 01                     	CMP	DWORD [16+EBP],1
  1493 00000E5F 74 63                           	JE	L280
  1494 00000E61 6A 00                           	PUSH	0
  1495 00000E63 68 [00000129]                   	PUSH	LC32
  1496 00000E68 68 00CD9B9B                     	PUSH	13474715
  1497 00000E6D 68 00FFC1C1                     	PUSH	16761281
  1498 00000E72                                 L279:
  1499 00000E72 68 000001DF                     	PUSH	479
  1500 00000E77 68 0000020D                     	PUSH	525
  1501 00000E7C 53                              	PUSH	EBX
  1502 00000E7D E8 [00000000]                   	CALL	_make_window8
  1503 00000E82 83 C4 1C                        	ADD	ESP,28
  1504 00000E85 89 C6                           	MOV	ESI,EAX
  1505 00000E87 6A 00                           	PUSH	0
  1506 00000E89 68 000001C4                     	PUSH	452
  1507 00000E8E 68 00000207                     	PUSH	519
  1508 00000E93 6A 18                           	PUSH	24
  1509 00000E95 6A 03                           	PUSH	3
  1510 00000E97 53                              	PUSH	EBX
  1511 00000E98 E8 [00000000]                   	CALL	_make_textbox8
  1512 00000E9D 6A 01                           	PUSH	1
  1513 00000E9F 56                              	PUSH	ESI
  1514 00000EA0 E8 [00000000]                   	CALL	_make_icon
  1515 00000EA5 83 C4 20                        	ADD	ESP,32
  1516 00000EA8 FF 75 0C                        	PUSH	DWORD [12+EBP]
  1517 00000EAB 53                              	PUSH	EBX
  1518 00000EAC E8 FFFFFED0                     	CALL	_open_constask
  1519 00000EB1 C7 43 1C 00000003               	MOV	DWORD [28+EBX],3
  1520 00000EB8 89 43 28                        	MOV	DWORD [40+EBX],EAX
  1521 00000EBB 8D 65 F8                        	LEA	ESP,DWORD [-8+EBP]
  1522 00000EBE 89 D8                           	MOV	EAX,EBX
  1523 00000EC0 5B                              	POP	EBX
  1524 00000EC1 5E                              	POP	ESI
  1525 00000EC2 5D                              	POP	EBP
  1526 00000EC3 C3                              	RET
  1527 00000EC4                                 L280:
  1528 00000EC4 6A 00                           	PUSH	0
  1529 00000EC6 68 [00000131]                   	PUSH	LC31
  1530 00000ECB 68 00840000                     	PUSH	8650752
  1531 00000ED0 68 00FF0000                     	PUSH	16711680
  1532 00000ED5 EB 9B                           	JMP	L279
  1533 00000ED7                                 	GLOBAL	_close_constask
  1534 00000ED7                                 _close_constask:
  1535 00000ED7 55                              	PUSH	EBP
  1536 00000ED8 89 E5                           	MOV	EBP,ESP
  1537 00000EDA 53                              	PUSH	EBX
  1538 00000EDB 8B 5D 08                        	MOV	EBX,DWORD [8+EBP]
  1539 00000EDE 53                              	PUSH	EBX
  1540 00000EDF E8 [00000000]                   	CALL	_task_sleep
  1541 00000EE4 68 00010000                     	PUSH	65536
  1542 00000EE9 FF B3 00000118                  	PUSH	DWORD [280+EBX]
  1543 00000EEF 68 003C0000                     	PUSH	3932160
  1544 00000EF4 E8 [00000000]                   	CALL	_memman_free_4k
  1545 00000EF9 68 00000200                     	PUSH	512
  1546 00000EFE FF 73 10                        	PUSH	DWORD [16+EBX]
  1547 00000F01 68 003C0000                     	PUSH	3932160
  1548 00000F06 E8 [00000000]                   	CALL	_memman_free_4k
  1549 00000F0B E8 [00000000]                   	CALL	_io_cli
  1550 00000F10 83 C4 1C                        	ADD	ESP,28
  1551 00000F13 A1 [00000000]                   	MOV	EAX,DWORD [_taskctl]
  1552 00000F18 C7 43 04 00000000               	MOV	DWORD [4+EBX],0
  1553 00000F1F 39 58 04                        	CMP	DWORD [4+EAX],EBX
  1554 00000F22 74 09                           	JE	L283
  1555 00000F24                                 L282:
  1556 00000F24 8B 5D FC                        	MOV	EBX,DWORD [-4+EBP]
  1557 00000F27 C9                              	LEAVE
  1558 00000F28 E9 [00000000]                   	JMP	_io_sti
  1559 00000F2D                                 L283:
  1560 00000F2D C7 40 04 00000000               	MOV	DWORD [4+EAX],0
  1561 00000F34 EB EE                           	JMP	L282
  1562 00000F36                                 	GLOBAL	_close_console
  1563 00000F36                                 _close_console:
  1564 00000F36 55                              	PUSH	EBP
  1565 00000F37 89 E5                           	MOV	EBP,ESP
  1566 00000F39 56                              	PUSH	ESI
  1567 00000F3A 53                              	PUSH	EBX
  1568 00000F3B 8B 5D 08                        	MOV	EBX,DWORD [8+EBP]
  1569 00000F3E 8B 73 28                        	MOV	ESI,DWORD [40+EBX]
  1570 00000F41 68 00029400                     	PUSH	168960
  1571 00000F46 FF 33                           	PUSH	DWORD [EBX]
  1572 00000F48 68 003C0000                     	PUSH	3932160
  1573 00000F4D E8 [00000000]                   	CALL	_memman_free_4k
  1574 00000F52 53                              	PUSH	EBX
  1575 00000F53 E8 [00000000]                   	CALL	_sheet_free
  1576 00000F58 89 75 08                        	MOV	DWORD [8+EBP],ESI
  1577 00000F5B 83 C4 10                        	ADD	ESP,16
  1578 00000F5E 8D 65 F8                        	LEA	ESP,DWORD [-8+EBP]
  1579 00000F61 5B                              	POP	EBX
  1580 00000F62 5E                              	POP	ESI
  1581 00000F63 5D                              	POP	EBP
  1582 00000F64 E9 FFFFFF6E                     	JMP	_close_constask
  1583 00000F69                                 	GLOBAL	_cons_printf
  1584 00000F69                                 _cons_printf:
  1585 00000F69 55                              	PUSH	EBP
  1586 00000F6A 89 E5                           	MOV	EBP,ESP
  1587 00000F6C 53                              	PUSH	EBX
  1588 00000F6D 81 EC 00000400                  	SUB	ESP,1024
  1589 00000F73 8D 45 10                        	LEA	EAX,DWORD [16+EBP]
  1590 00000F76 8D 9D FFFFFBFC                  	LEA	EBX,DWORD [-1028+EBP]
  1591 00000F7C 50                              	PUSH	EAX
  1592 00000F7D FF 75 0C                        	PUSH	DWORD [12+EBP]
  1593 00000F80 53                              	PUSH	EBX
  1594 00000F81 E8 [00000000]                   	CALL	_vsprintf
  1595 00000F86 53                              	PUSH	EBX
  1596 00000F87 FF 75 08                        	PUSH	DWORD [8+EBP]
  1597 00000F8A E8 FFFFF7A1                     	CALL	_cons_putstr0
  1598 00000F8F 8B 5D FC                        	MOV	EBX,DWORD [-4+EBP]
  1599 00000F92 C9                              	LEAVE
  1600 00000F93 C3                              	RET
  1601 00000F94                                 	GLOBAL	_debug_print
  1602 00000F94                                 _debug_print:
  1603 00000F94 55                              	PUSH	EBP
  1604 00000F95 89 E5                           	MOV	EBP,ESP
  1605 00000F97 56                              	PUSH	ESI
  1606 00000F98 53                              	PUSH	EBX
  1607 00000F99 81 EC 00000400                  	SUB	ESP,1024
  1608 00000F9F 8D 45 0C                        	LEA	EAX,DWORD [12+EBP]
  1609 00000FA2 8B 35 00030000                  	MOV	ESI,DWORD [196608]
  1610 00000FA8 8D 9D FFFFFBF8                  	LEA	EBX,DWORD [-1032+EBP]
  1611 00000FAE 50                              	PUSH	EAX
  1612 00000FAF FF 75 08                        	PUSH	DWORD [8+EBP]
  1613 00000FB2 53                              	PUSH	EBX
  1614 00000FB3 E8 [00000000]                   	CALL	_vsprintf
  1615 00000FB8 53                              	PUSH	EBX
  1616 00000FB9 8B 46 28                        	MOV	EAX,DWORD [40+ESI]
  1617 00000FBC FF B0 00000110                  	PUSH	DWORD [272+EAX]
  1618 00000FC2 E8 FFFFF769                     	CALL	_cons_putstr0
  1619 00000FC7 8D 65 F8                        	LEA	ESP,DWORD [-8+EBP]
  1620 00000FCA 5B                              	POP	EBX
  1621 00000FCB 5E                              	POP	ESI
  1622 00000FCC 5D                              	POP	EBP
  1623 00000FCD C3                              	RET
